

Microchip MPLAB XC8 Assembler V2.45 build 20230818022343 
                                                                                               Sun Feb 11 06:10:10 2024

Microchip MPLAB XC8 C Compiler v2.45 (Free license) build 20230818022343 Og1 
     1                           	processor	18F4620
     2                           	fnconf	rparam,??,?,0
     3                           	pagewidth 120
     4                           	opt	flic
     5                           	psect	idataCOMRAM,global,class=CODE,delta=1,noexec
     6                           	psect	idataBANK0,global,class=CODE,delta=1,noexec
     7                           	psect	smallconst,global,reloc=2,class=SMALLCONST,delta=1,noexec
     8                           	psect	cinit,global,reloc=2,class=CODE,delta=1
     9                           	psect	bssCOMRAM,global,class=COMRAM,space=1,delta=1,lowdata,noexec
    10                           	psect	dataCOMRAM,global,class=COMRAM,space=1,delta=1,lowdata,noexec
    11                           	psect	bssBANK0,global,class=BANK0,space=1,delta=1,lowdata,noexec
    12                           	psect	dataBANK0,global,class=BANK0,space=1,delta=1,lowdata,noexec
    13                           	psect	cstackCOMRAM,global,class=COMRAM,space=1,delta=1,lowdata,noexec
    14                           	psect	text0,global,reloc=2,class=CODE,delta=1
    15                           	psect	text1,global,reloc=2,class=CODE,delta=1
    16                           	psect	text2,global,reloc=2,class=CODE,delta=1
    17                           	psect	text3,global,reloc=2,class=CODE,delta=1
    18                           	psect	text4,global,reloc=2,class=CODE,delta=1
    19                           	psect	text5,global,reloc=2,class=CODE,delta=1
    20                           	psect	text6,global,reloc=2,class=CODE,delta=1
    21                           	psect	text7,global,reloc=2,class=CODE,delta=1
    22                           	psect	text8,global,reloc=2,class=CODE,delta=1
    23                           	psect	text9,global,reloc=2,class=CODE,delta=1,group=3
    24                           	psect	text10,global,reloc=2,class=CODE,delta=1,group=1
    25                           	psect	text11,global,reloc=2,class=CODE,delta=1,group=1
    26                           	psect	text12,global,reloc=2,class=CODE,delta=1,group=3
    27                           	psect	text13,global,reloc=2,class=CODE,delta=1,group=3
    28                           	psect	text14,global,reloc=2,class=CODE,delta=1,group=3
    29                           	psect	text15,global,reloc=2,class=CODE,delta=1,group=2
    30                           	psect	text16,global,reloc=2,class=CODE,delta=1,group=2
    31                           	psect	text17,global,reloc=2,class=CODE,delta=1,group=3
    32                           	psect	text18,global,reloc=2,class=CODE,delta=1
    33                           	psect	text19,global,reloc=2,class=CODE,delta=1
    34                           	psect	text20,global,reloc=2,class=CODE,delta=1
    35                           	psect	text21,global,reloc=2,class=CODE,delta=1
    36                           	psect	text22,global,reloc=2,class=CODE,delta=1
    37                           	psect	text23,global,reloc=2,class=CODE,delta=1
    38                           	psect	text24,global,reloc=2,class=CODE,delta=1
    39                           	psect	text25,global,reloc=2,class=CODE,delta=1
    40                           	psect	text26,global,reloc=2,class=CODE,delta=1
    41                           	psect	text27,global,reloc=2,class=CODE,delta=1
    42                           	psect	text28,global,reloc=2,class=CODE,delta=1
    43                           	psect	text29,global,reloc=2,class=CODE,delta=1
    44                           	psect	text30,global,reloc=2,class=CODE,delta=1
    45                           	psect	text31,global,reloc=2,class=CODE,delta=1
    46                           	psect	text32,global,reloc=2,class=CODE,delta=1
    47                           	psect	text33,global,reloc=2,class=CODE,delta=1
    48                           	psect	intsave_regs,global,class=BIGRAM,space=1,delta=1,noexec
    49                           	psect	rparam,global,class=COMRAM,space=1,delta=1,noexec
    50                           	psect	config,global,abs,ovrld,class=CONFIG,space=4,delta=1,noexec
    51   000000                     
    52                           ; Generated 23/03/2023 GMT
    53                           ; 
    54                           ; Copyright © 2023, Microchip Technology Inc. and its subsidiaries ("Microchip")
    55                           ; All rights reserved.
    56                           ; 
    57                           ; This software is developed by Microchip Technology Inc. and its subsidiaries ("Microch
      +                          ip").
    58                           ; 
    59                           ; Redistribution and use in source and binary forms, with or without modification, are
    60                           ; permitted provided that the following conditions are met:
    61                           ; 
    62                           ;     1. Redistributions of source code must retain the above copyright notice, this lis
      +                          t of
    63                           ;        conditions and the following disclaimer.
    64                           ; 
    65                           ;     2. Redistributions in binary form must reproduce the above copyright notice, this 
      +                          list
    66                           ;        of conditions and the following disclaimer in the documentation and/or other
    67                           ;        materials provided with the distribution. Publication is not required when
    68                           ;        this file is used in an embedded application.
    69                           ; 
    70                           ;     3. Microchip's name may not be used to endorse or promote products derived from th
      +                          is
    71                           ;        software without specific prior written permission.
    72                           ; 
    73                           ; THIS SOFTWARE IS PROVIDED BY MICROCHIP "AS IS" AND ANY EXPRESS OR IMPLIED WARRANTIES,
    74                           ; INCLUDING, BUT NOT LIMITED TO, THE IMPLIED WARRANTIES OF MERCHANTABILITY AND FITNESS F
      +                          OR
    75                           ; PURPOSE ARE DISCLAIMED.  IN NO EVENT SHALL MICROCHIP BE LIABLE FOR ANY DIRECT, INDIREC
      +                          T,
    76                           ; INCIDENTAL, SPECIAL, EXEMPLARY, OR CONSEQUENTIAL DAMAGES (INCLUDING BUT NOT LIMITED TO
    77                           ; PROCUREMENT OF SUBSTITUTE GOODS OR SERVICES; LOSS OF USE, DATA OR PROFITS; OR BUSINESS
    78                           ; INTERRUPTION) HOWSOEVER CAUSED AND ON ANY THEORY OF LIABILITY, WHETHER IN CONTRACT, ST
      +                          RICT
    79                           ; LIABILITY, OR TORT (INCLUDING NEGLIGENCE OR OTHERWISE) ARISING IN ANY WAY OUT OF THE U
      +                          SE OF
    80                           ; THIS SOFTWARE, EVEN IF ADVISED OF THE POSSIBILITY OF SUCH DAMAGE.
    81                           ; 
    82                           ; 
    83                           ; Code-generator required, PIC18F4620 Definitions
    84                           ; 
    85                           ; SFR Addresses
    86   000000                     
    87                           	psect	idataCOMRAM
    88   002224                     __pidataCOMRAM:
    89                           	callstack 0
    90                           
    91                           ;initializer for _lat_registers
    92   002224  89                 	db	137
    93   002225  0F                 	db	15
    94   002226  8A                 	db	138
    95   002227  0F                 	db	15
    96   002228  8B                 	db	139
    97   002229  0F                 	db	15
    98   00222A  8C                 	db	140
    99   00222B  0F                 	db	15
   100   00222C  8D                 	db	141
   101   00222D  0F                 	db	15
   102                           
   103                           ;initializer for _tris_registers
   104   00222E  92                 	db	146
   105   00222F  0F                 	db	15
   106   002230  93                 	db	147
   107   002231  0F                 	db	15
   108   002232  94                 	db	148
   109   002233  0F                 	db	15
   110   002234  95                 	db	149
   111   002235  0F                 	db	15
   112   002236  96                 	db	150
   113   002237  0F                 	db	15
   114                           
   115                           ;initializer for _i
   116   002238  02                 	db	2
   117                           
   118                           ;initializer for _tries
   119   002239  03                 	db	3
   120                           
   121                           ;initializer for _keypad
   122   00223A  02                 	db	2
   123   00223B  0A                 	db	10
   124   00223C  12                 	db	18
   125   00223D  1A                 	db	26
   126   00223E  62                 	db	98
   127   00223F  6A                 	db	106
   128   002240  72                 	db	114
   129   002241  7A                 	db	122
   130                           
   131                           ;initializer for _lcd
   132   002242  03                 	db	3
   133   002243  0B                 	db	11
   134   002244  13                 	db	19
   135   002245  1B                 	db	27
   136   002246  23                 	db	35
   137   002247  2B                 	db	43
   138                           
   139                           	psect	idataBANK0
   140   002270                     __pidataBANK0:
   141                           	callstack 0
   142                           
   143                           ;initializer for _port_registers
   144   002270  80                 	db	128
   145   002271  0F                 	db	15
   146   002272  81                 	db	129
   147   002273  0F                 	db	15
   148   002274  82                 	db	130
   149   002275  0F                 	db	15
   150   002276  83                 	db	131
   151   002277  0F                 	db	15
   152   002278  84                 	db	132
   153   002279  0F                 	db	15
   154                           
   155                           	psect	smallconst
   156   001000                     __psmallconst:
   157                           	callstack 0
   158   001000  00                 	db	0
   159   001001                     _keypad_values:
   160                           	callstack 0
   161   001001  37                 	db	55
   162   001002  38                 	db	56
   163   001003  39                 	db	57
   164   001004  2F                 	db	47
   165   001005  34                 	db	52
   166   001006  35                 	db	53
   167   001007  36                 	db	54
   168   001008  2A                 	db	42
   169   001009  31                 	db	49
   170   00100A  32                 	db	50
   171   00100B  33                 	db	51
   172   00100C  2D                 	db	45
   173   00100D  23                 	db	35
   174   00100E  30                 	db	48
   175   00100F  3D                 	db	61
   176   001010  2B                 	db	43
   177   001011                     __end_of_keypad_values:
   178                           	callstack 0
   179   000000                     _PORTE	set	3972
   180   000000                     _PORTD	set	3971
   181   000000                     _PORTC	set	3970
   182   000000                     _PORTB	set	3969
   183   000000                     _PORTA	set	3968
   184   000000                     _LATA	set	3977
   185   000000                     _TRISA	set	3986
   186   000000                     _TRISE	set	3990
   187   000000                     _TRISD	set	3989
   188   000000                     _TRISC	set	3988
   189   000000                     _TRISB	set	3987
   190   000000                     _LATE	set	3981
   191   000000                     _LATD	set	3980
   192   000000                     _LATC	set	3979
   193   000000                     _LATB	set	3978
   194   001011                     STR_7:
   195   001011  45                 	db	69	;'E'
   196   001012  6E                 	db	110	;'n'
   197   001013  74                 	db	116	;'t'
   198   001014  65                 	db	101	;'e'
   199   001015  72                 	db	114	;'r'
   200   001016  20                 	db	32
   201   001017  50                 	db	80	;'P'
   202   001018  61                 	db	97	;'a'
   203   001019  73                 	db	115	;'s'
   204   00101A  73                 	db	115	;'s'
   205   00101B  77                 	db	119	;'w'
   206   00101C  6F                 	db	111	;'o'
   207   00101D  72                 	db	114	;'r'
   208   00101E  64                 	db	100	;'d'
   209   00101F  20                 	db	32
   210   001020  3A                 	db	58	;':'
   211   001021  20                 	db	32
   212   001022  00                 	db	0
   213   001023                     STR_5:
   214   001023  53                 	db	83	;'S'
   215   001024  65                 	db	101	;'e'
   216   001025  74                 	db	116	;'t'
   217   001026  20                 	db	32
   218   001027  50                 	db	80	;'P'
   219   001028  61                 	db	97	;'a'
   220   001029  73                 	db	115	;'s'
   221   00102A  73                 	db	115	;'s'
   222   00102B  77                 	db	119	;'w'
   223   00102C  6F                 	db	111	;'o'
   224   00102D  72                 	db	114	;'r'
   225   00102E  64                 	db	100	;'d'
   226   00102F  20                 	db	32
   227   001030  3A                 	db	58	;':'
   228   001031  20                 	db	32
   229   001032  00                 	db	0
   230   001033                     STR_6:
   231   001033  50                 	db	80	;'P'
   232   001034  61                 	db	97	;'a'
   233   001035  73                 	db	115	;'s'
   234   001036  73                 	db	115	;'s'
   235   001037  77                 	db	119	;'w'
   236   001038  6F                 	db	111	;'o'
   237   001039  72                 	db	114	;'r'
   238   00103A  64                 	db	100	;'d'
   239   00103B  20                 	db	32
   240   00103C  64                 	db	100	;'d'
   241   00103D  6F                 	db	111	;'o'
   242   00103E  6E                 	db	110	;'n'
   243   00103F  65                 	db	101	;'e'
   244   001040  21                 	db	33
   245   001041  00                 	db	0
   246   001042                     STR_4:
   247   001042  54                 	db	84	;'T'
   248   001043  72                 	db	114	;'r'
   249   001044  79                 	db	121	;'y'
   250   001045  20                 	db	32
   251   001046  61                 	db	97	;'a'
   252   001047  67                 	db	103	;'g'
   253   001048  61                 	db	97	;'a'
   254   001049  69                 	db	105	;'i'
   255   00104A  6E                 	db	110	;'n'
   256   00104B  21                 	db	33
   257   00104C  00                 	db	0
   258   00104D                     STR_1:
   259   00104D  54                 	db	84	;'T'
   260   00104E  72                 	db	114	;'r'
   261   00104F  69                 	db	105	;'i'
   262   001050  65                 	db	101	;'e'
   263   001051  73                 	db	115	;'s'
   264   001052  20                 	db	32
   265   001053  3A                 	db	58	;':'
   266   001054  00                 	db	0
   267   001055                     STR_2:
   268   001055  43                 	db	67	;'C'
   269   001056  6F                 	db	111	;'o'
   270   001057  72                 	db	114	;'r'
   271   001058  72                 	db	114	;'r'
   272   001059  65                 	db	101	;'e'
   273   00105A  63                 	db	99	;'c'
   274   00105B  74                 	db	116	;'t'
   275   00105C  00                 	db	0
   276   00105D                     STR_3:
   277   00105D  57                 	db	87	;'W'
   278   00105E  72                 	db	114	;'r'
   279   00105F  6F                 	db	111	;'o'
   280   001060  6E                 	db	110	;'n'
   281   001061  67                 	db	103	;'g'
   282   001062  00                 	db	0
   283   001063                     STR_8:
   284   001063  25                 	db	37
   285   001064  69                 	db	105	;'i'
   286   001065  00                 	db	0
   287   001066  00                 	db	0	; dummy byte at the end
   288   000000                     
   289                           ; #config settings
   290                           
   291                           	psect	cinit
   292   001E08                     __pcinit:
   293                           	callstack 0
   294   001E08                     start_initialization:
   295                           	callstack 0
   296   001E08                     __initialization:
   297                           	callstack 0
   298                           
   299                           ; Initialize objects allocated to BANK0 (10 bytes)
   300                           ; load TBLPTR registers with __pidataBANK0
   301   001E08  0E70               	movlw	low __pidataBANK0
   302   001E0A  6EF6               	movwf	tblptrl,c
   303   001E0C  0E22               	movlw	high __pidataBANK0
   304   001E0E  6EF7               	movwf	tblptrh,c
   305   001E10  0E00               	movlw	low (__pidataBANK0 shr (0+16))
   306   001E12  6EF8               	movwf	tblptru,c
   307   001E14  EE00  F0A0         	lfsr	0,__pdataBANK0
   308   001E18  EE10 F00A          	lfsr	1,10
   309   001E1C                     copy_data0:
   310   001E1C  0009               	tblrd		*+
   311   001E1E  CFF5 FFEE          	movff	tablat,postinc0
   312   001E22  50E5               	movf	postdec1,w,c
   313   001E24  50E1               	movf	fsr1l,w,c
   314   001E26  E1FA               	bnz	copy_data0
   315                           
   316                           ; Initialize objects allocated to COMRAM (36 bytes)
   317                           ; load TBLPTR registers with __pidataCOMRAM
   318   001E28  0E24               	movlw	low __pidataCOMRAM
   319   001E2A  6EF6               	movwf	tblptrl,c
   320   001E2C  0E22               	movlw	high __pidataCOMRAM
   321   001E2E  6EF7               	movwf	tblptrh,c
   322   001E30  0E00               	movlw	low (__pidataCOMRAM shr (0+16))
   323   001E32  6EF8               	movwf	tblptru,c
   324   001E34  EE00  F059         	lfsr	0,__pdataCOMRAM
   325   001E38  EE10 F024          	lfsr	1,36
   326   001E3C                     copy_data1:
   327   001E3C  0009               	tblrd		*+
   328   001E3E  CFF5 FFEE          	movff	tablat,postinc0
   329   001E42  50E5               	movf	postdec1,w,c
   330   001E44  50E1               	movf	fsr1l,w,c
   331   001E46  E1FA               	bnz	copy_data1
   332                           
   333                           ; Clear objects allocated to BANK0 (32 bytes)
   334   001E48  EE00  F080         	lfsr	0,__pbssBANK0
   335   001E4C  0E20               	movlw	32
   336   001E4E                     clear_0:
   337   001E4E  6AEE               	clrf	postinc0,c
   338   001E50  06E8               	decf	wreg,f,c
   339   001E52  E1FD               	bnz	clear_0
   340                           
   341                           ; Clear objects allocated to COMRAM (40 bytes)
   342   001E54  EE00  F031         	lfsr	0,__pbssCOMRAM
   343   001E58  0E28               	movlw	40
   344   001E5A                     clear_1:
   345   001E5A  6AEE               	clrf	postinc0,c
   346   001E5C  06E8               	decf	wreg,f,c
   347   001E5E  E1FD               	bnz	clear_1
   348   001E60                     end_of_initialization:
   349                           	callstack 0
   350   001E60                     __end_of__initialization:
   351                           	callstack 0
   352   001E60  0E00               	movlw	low (__Lmediumconst shr (0+16))
   353   001E62  6EF8               	movwf	tblptru,c
   354   001E64  0100               	movlb	0
   355   001E66  EF0F  F00B         	goto	_main	;jump to C main() function
   356                           
   357                           	psect	bssCOMRAM
   358   000031                     __pbssCOMRAM:
   359                           	callstack 0
   360   000031                     _width:
   361                           	callstack 0
   362   000031                     	ds	2
   363   000033                     _prec:
   364                           	callstack 0
   365   000033                     	ds	2
   366   000035                     _flags:
   367                           	callstack 0
   368   000035                     	ds	1
   369   000036                     Relay_turn_off@F3064:
   370                           	callstack 0
   371   000036                     	ds	1
   372   000037                     Relay_turn_on@F3059:
   373                           	callstack 0
   374   000037                     	ds	1
   375   000038                     Relay_initialize@F3054:
   376                           	callstack 0
   377   000038                     	ds	1
   378   000039                     led_toggle@F3073:
   379                           	callstack 0
   380   000039                     	ds	1
   381   00003A                     led_turn_off@F3068:
   382                           	callstack 0
   383   00003A                     	ds	1
   384   00003B                     led_turn_on@F3063:
   385                           	callstack 0
   386   00003B                     	ds	1
   387   00003C                     led_initialize@F3058:
   388                           	callstack 0
   389   00003C                     	ds	1
   390   00003D                     dc_motor_stop@F3080:
   391                           	callstack 0
   392   00003D                     	ds	1
   393   00003E                     dc_motor_stop@F3078:
   394                           	callstack 0
   395   00003E                     	ds	1
   396   00003F                     dc_motor_move_left@F3073:
   397                           	callstack 0
   398   00003F                     	ds	1
   399   000040                     dc_motor_move_left@F3071:
   400                           	callstack 0
   401   000040                     	ds	1
   402   000041                     dc_motor_move_right@F3066:
   403                           	callstack 0
   404   000041                     	ds	1
   405   000042                     dc_motor_move_right@F3064:
   406                           	callstack 0
   407   000042                     	ds	1
   408   000043                     dc_motor_intitialize@F3059:
   409                           	callstack 0
   410   000043                     	ds	1
   411   000044                     dc_motor_intitialize@F3057:
   412                           	callstack 0
   413   000044                     	ds	1
   414   000045                     _input:
   415                           	callstack 0
   416   000045                     	ds	6
   417   00004B                     _password:
   418                           	callstack 0
   419   00004B                     	ds	6
   420   000051                     _tries_txt:
   421                           	callstack 0
   422   000051                     	ds	4
   423   000055                     _flag:
   424                           	callstack 0
   425   000055                     	ds	4
   426                           
   427                           	psect	dataCOMRAM
   428   000059                     __pdataCOMRAM:
   429                           	callstack 0
   430   000059                     _lat_registers:
   431                           	callstack 0
   432   000059                     	ds	10
   433   000063                     _tris_registers:
   434                           	callstack 0
   435   000063                     	ds	10
   436   00006D                     _i:
   437                           	callstack 0
   438   00006D                     	ds	1
   439   00006E                     _tries:
   440                           	callstack 0
   441   00006E                     	ds	1
   442   00006F                     _keypad:
   443                           	callstack 0
   444   00006F                     	ds	8
   445   000077                     _lcd:
   446                           	callstack 0
   447   000077                     	ds	6
   448                           
   449                           	psect	bssBANK0
   450   000080                     __pbssBANK0:
   451                           	callstack 0
   452   000080                     _dbuf:
   453                           	callstack 0
   454   000080                     	ds	32
   455                           
   456                           	psect	dataBANK0
   457   0000A0                     __pdataBANK0:
   458                           	callstack 0
   459   0000A0                     _port_registers:
   460                           	callstack 0
   461   0000A0                     	ds	10
   462                           
   463                           	psect	cstackCOMRAM
   464   000001                     __pcstackCOMRAM:
   465                           	callstack 0
   466   000001                     ?___awdiv:
   467                           	callstack 0
   468   000001                     ?___awmod:
   469                           	callstack 0
   470   000001                     gpio_pin_direction_initialize@_pin_config:
   471                           	callstack 0
   472   000001                     gpio_pin_write_logic@_pin_config:
   473                           	callstack 0
   474   000001                     gpio_pin_read_logic@_pin_config:
   475                           	callstack 0
   476   000001                     memset@dest:
   477                           	callstack 0
   478   000001                     ___awdiv@dividend:
   479                           	callstack 0
   480   000001                     ___awmod@dividend:
   481                           	callstack 0
   482   000001                     fputc@c:
   483                           	callstack 0
   484                           
   485                           ; 2 bytes @ 0x0
   486   000001                     	ds	1
   487   000002                     ??_gpio_pin_direction_initialize:
   488   000002                     gpio_pin_write_logic@logic:
   489                           	callstack 0
   490   000002                     gpio_pin_read_logic@logic:
   491                           	callstack 0
   492   000002                     memset@c:
   493                           	callstack 0
   494                           
   495                           ; 2 bytes @ 0x1
   496   000002                     	ds	1
   497   000003                     ??_gpio_pin_write_logic:
   498   000003                     ??_gpio_pin_read_logic:
   499   000003                     fputc@fp:
   500                           	callstack 0
   501   000003                     ___awdiv@divisor:
   502                           	callstack 0
   503   000003                     ___awmod@divisor:
   504                           	callstack 0
   505                           
   506                           ; 2 bytes @ 0x2
   507   000003                     	ds	1
   508   000004                     ??_fputc:
   509   000004                     memset@n:
   510                           	callstack 0
   511                           
   512                           ; 2 bytes @ 0x3
   513   000004                     	ds	1
   514   000005                     ___awdiv@counter:
   515                           	callstack 0
   516   000005                     ___awmod@counter:
   517                           	callstack 0
   518                           
   519                           ; 1 bytes @ 0x4
   520   000005                     	ds	1
   521   000006                     ___awdiv@sign:
   522                           	callstack 0
   523   000006                     ___awmod@sign:
   524                           	callstack 0
   525   000006                     memset@p:
   526                           	callstack 0
   527                           
   528                           ; 1 bytes @ 0x5
   529   000006                     	ds	1
   530   000007                     ?_abs:
   531                           	callstack 0
   532   000007                     gpio_pin_direction_initialize@ret:
   533                           	callstack 0
   534   000007                     gpio_pin_read_logic@ret:
   535                           	callstack 0
   536   000007                     ___awdiv@quotient:
   537                           	callstack 0
   538   000007                     abs@a:
   539                           	callstack 0
   540                           
   541                           ; 2 bytes @ 0x6
   542   000007                     	ds	1
   543   000008                     gpio_pin_write_logic@ret:
   544                           	callstack 0
   545                           
   546                           ; 1 bytes @ 0x7
   547   000008                     	ds	1
   548   000009                     ??_abs:
   549   000009                     keypad_get_value@_keypad_obj:
   550                           	callstack 0
   551   000009                     gpio_pin_initialize@_pin_config:
   552                           	callstack 0
   553   000009                     lcd_send_4bits@lcd:
   554                           	callstack 0
   555   000009                     lcd_4bit_send_enable_signal@lcd:
   556                           	callstack 0
   557                           
   558                           ; 1 bytes @ 0x8
   559   000009                     	ds	1
   560   00000A                     ??_gpio_pin_initialize:
   561   00000A                     keypad_get_value@value:
   562                           	callstack 0
   563   00000A                     lcd_send_4bits@data_command:
   564                           	callstack 0
   565   00000A                     lcd_4bit_send_enable_signal@ret:
   566                           	callstack 0
   567                           
   568                           ; 1 bytes @ 0x9
   569   00000A                     	ds	1
   570   00000B                     ??_keypad_get_value:
   571   00000B                     gpio_pin_initialize@ret:
   572                           	callstack 0
   573   00000B                     lcd_send_4bits@ret:
   574                           	callstack 0
   575   00000B                     vfpfcnvrt@fp:
   576                           	callstack 0
   577                           
   578                           ; 1 bytes @ 0xA
   579   00000B                     	ds	1
   580   00000C                     keypad_initialize@kpd:
   581                           	callstack 0
   582   00000C                     keypad_get_value@column_logic:
   583                           	callstack 0
   584   00000C                     lcd_4bit_send_command@lcd:
   585                           	callstack 0
   586   00000C                     lcd_4bit_send_char_data@lcd:
   587                           	callstack 0
   588   00000C                     vfpfcnvrt@fmt:
   589                           	callstack 0
   590                           
   591                           ; 1 bytes @ 0xB
   592   00000C                     	ds	1
   593   00000D                     keypad_initialize@ret:
   594                           	callstack 0
   595   00000D                     keypad_get_value@l_counter:
   596                           	callstack 0
   597   00000D                     lcd_4bit_send_command@command:
   598                           	callstack 0
   599   00000D                     lcd_4bit_send_char_data@data:
   600                           	callstack 0
   601   00000D                     vfpfcnvrt@ap:
   602                           	callstack 0
   603                           
   604                           ; 1 bytes @ 0xC
   605   00000D                     	ds	1
   606   00000E                     ??_vfpfcnvrt:
   607   00000E                     keypad_initialize@i:
   608                           	callstack 0
   609   00000E                     keypad_get_value@l_rows_counter:
   610                           	callstack 0
   611   00000E                     lcd_4bit_send_command@ret:
   612                           	callstack 0
   613   00000E                     lcd_4bit_send_char_data@ret:
   614                           	callstack 0
   615                           
   616                           ; 1 bytes @ 0xD
   617   00000E                     	ds	1
   618   00000F                     keypad_get_value@l_columns_counter:
   619                           	callstack 0
   620   00000F                     lcd_4bit_initialize@lcd:
   621                           	callstack 0
   622   00000F                     lcd_4bit_send_string@lcd:
   623                           	callstack 0
   624   00000F                     lcd_4bit_set_cursor@lcd:
   625                           	callstack 0
   626   00000F                     vfpfcnvrt@done:
   627                           	callstack 0
   628                           
   629                           ; 1 bytes @ 0xE
   630   00000F                     	ds	1
   631   000010                     ??_lcd_4bit_initialize:
   632   000010                     lcd_4bit_set_cursor@row:
   633                           	callstack 0
   634   000010                     vfpfcnvrt@cp:
   635                           	callstack 0
   636   000010                     lcd_4bit_send_string@str:
   637                           	callstack 0
   638                           
   639                           ; 2 bytes @ 0xF
   640   000010                     	ds	1
   641   000011                     lcd_4bit_initialize@i:
   642                           	callstack 0
   643   000011                     lcd_4bit_set_cursor@column:
   644                           	callstack 0
   645   000011                     vfpfcnvrt@convarg:
   646                           	callstack 0
   647                           
   648                           ; 4 bytes @ 0x10
   649   000011                     	ds	1
   650   000012                     ??_lcd_4bit_set_cursor:
   651   000012                     lcd_4bit_initialize@ret:
   652                           	callstack 0
   653   000012                     lcd_4bit_send_string@ret:
   654                           	callstack 0
   655                           
   656                           ; 1 bytes @ 0x11
   657   000012                     	ds	1
   658   000013                     
   659                           ; 1 bytes @ 0x12
   660   000013                     	ds	1
   661   000014                     lcd_4bit_set_cursor@ret:
   662                           	callstack 0
   663                           
   664                           ; 1 bytes @ 0x13
   665   000014                     	ds	1
   666   000015                     lcd_4bit_send_char_data_pos@lcd:
   667                           	callstack 0
   668   000015                     lcd_4bit_send_string_pos@lcd:
   669                           	callstack 0
   670   000015                     vfpfcnvrt@c:
   671                           	callstack 0
   672                           
   673                           ; 1 bytes @ 0x14
   674   000015                     	ds	1
   675   000016                     ?_vfprintf:
   676                           	callstack 0
   677   000016                     lcd_4bit_send_char_data_pos@row:
   678                           	callstack 0
   679   000016                     lcd_4bit_send_string_pos@row:
   680                           	callstack 0
   681   000016                     vfprintf@fp:
   682                           	callstack 0
   683                           
   684                           ; 1 bytes @ 0x15
   685   000016                     	ds	1
   686   000017                     lcd_4bit_send_char_data_pos@column:
   687                           	callstack 0
   688   000017                     lcd_4bit_send_string_pos@column:
   689                           	callstack 0
   690   000017                     vfprintf@fmt:
   691                           	callstack 0
   692                           
   693                           ; 1 bytes @ 0x16
   694   000017                     	ds	1
   695   000018                     lcd_4bit_send_char_data_pos@data:
   696                           	callstack 0
   697   000018                     vfprintf@ap:
   698                           	callstack 0
   699   000018                     lcd_4bit_send_string_pos@str:
   700                           	callstack 0
   701                           
   702                           ; 2 bytes @ 0x17
   703   000018                     	ds	1
   704   000019                     lcd_4bit_send_char_data_pos@ret:
   705                           	callstack 0
   706   000019                     vfprintf@cfmt:
   707                           	callstack 0
   708                           
   709                           ; 1 bytes @ 0x18
   710   000019                     	ds	1
   711   00001A                     ?_sprintf:
   712                           	callstack 0
   713   00001A                     read_input@input:
   714                           	callstack 0
   715   00001A                     lcd_4bit_send_string_pos@ret:
   716                           	callstack 0
   717   00001A                     sprintf@s:
   718                           	callstack 0
   719                           
   720                           ; 1 bytes @ 0x19
   721   00001A                     	ds	1
   722   00001B                     read_input@flag:
   723                           	callstack 0
   724   00001B                     compare@_input:
   725                           	callstack 0
   726   00001B                     sprintf@fmt:
   727                           	callstack 0
   728                           
   729                           ; 1 bytes @ 0x1A
   730   00001B                     	ds	1
   731   00001C                     ??_set_password:
   732   00001C                     ??_read_inputs:
   733   00001C                     compare@_password:
   734                           	callstack 0
   735                           
   736                           ; 1 bytes @ 0x1B
   737   00001C                     	ds	1
   738   00001D                     
   739                           ; 1 bytes @ 0x1C
   740   00001D                     	ds	1
   741   00001E                     read_inputs@l_counter:
   742                           	callstack 0
   743   00001E                     set_password@l_counter:
   744                           	callstack 0
   745   00001E                     sprintf@ap:
   746                           	callstack 0
   747                           
   748                           ; 1 bytes @ 0x1D
   749   00001E                     	ds	1
   750   00001F                     compare@flag:
   751                           	callstack 0
   752   00001F                     sprintf@f:
   753                           	callstack 0
   754                           
   755                           ; 12 bytes @ 0x1E
   756   00001F                     	ds	1
   757   000020                     compare@l_counter:
   758                           	callstack 0
   759                           
   760                           ; 1 bytes @ 0x1F
   761   000020                     	ds	11
   762   00002B                     convert_uint8_to_string@str:
   763                           	callstack 0
   764                           
   765                           ; 1 bytes @ 0x2A
   766   00002B                     	ds	1
   767   00002C                     convert_uint8_to_string@value:
   768                           	callstack 0
   769                           
   770                           ; 1 bytes @ 0x2B
   771   00002C                     	ds	1
   772   00002D                     convert_uint8_to_string@ret:
   773                           	callstack 0
   774                           
   775                           ; 1 bytes @ 0x2C
   776   00002D                     	ds	1
   777   00002E                     ??_main:
   778                           
   779                           ; 1 bytes @ 0x2D
   780   00002E                     	ds	2
   781   000030                     main@cmpr_ret:
   782                           	callstack 0
   783                           
   784                           ; 1 bytes @ 0x2F
   785   000030                     	ds	1
   786                           
   787 ;;
   788 ;;Main: autosize = 0, tempsize = 2, incstack = 0, save=0
   789 ;;
   790 ;; *************** function _main *****************
   791 ;; Defined at:
   792 ;;		line 31 in file "application.c"
   793 ;; Parameters:    Size  Location     Type
   794 ;;		None
   795 ;; Auto vars:     Size  Location     Type
   796 ;;  cmpr_ret        1   47[COMRAM] unsigned char 
   797 ;;  ret             1    0        unsigned char 
   798 ;; Return value:  Size  Location     Type
   799 ;;                  2  345[None  ] int 
   800 ;; Registers used:
   801 ;;		wreg, fsr0l, fsr0h, fsr1l, fsr1h, fsr2l, fsr2h, status,2, status,0, tblptrl, tblptrh, tblptru, prodl, prodh, cstack
   802 ;; Tracked objects:
   803 ;;		On entry : 0/0
   804 ;;		On exit  : 0/0
   805 ;;		Unchanged: 0/0
   806 ;; Data sizes:     COMRAM   BANK0   BANK1   BANK2   BANK3   BANK4   BANK5   BANK6   BANK7   BANK8   BANK9  BANK10  BANK1
      +1  BANK12  BANK13  BANK14  BANK15
   807 ;;      Params:         0       0       0       0       0       0       0       0       0       0       0       0       
      +0       0       0       0       0
   808 ;;      Locals:         1       0       0       0       0       0       0       0       0       0       0       0       
      +0       0       0       0       0
   809 ;;      Temps:          2       0       0       0       0       0       0       0       0       0       0       0       
      +0       0       0       0       0
   810 ;;      Totals:         3       0       0       0       0       0       0       0       0       0       0       0       
      +0       0       0       0       0
   811 ;;Total ram usage:        3 bytes
   812 ;; Hardware stack levels required when called: 8
   813 ;; This function calls:
   814 ;;		_application_initialize
   815 ;;		_clear_lcd
   816 ;;		_compare
   817 ;;		_convert_uint8_to_string
   818 ;;		_enter_password
   819 ;;		_lcd_4bit_send_command
   820 ;;		_lcd_4bit_send_string_pos
   821 ;;		_set_password
   822 ;; This function is called by:
   823 ;;		Startup code after reset
   824 ;; This function uses a non-reentrant model
   825 ;;
   826                           
   827                           	psect	text0
   828   00161E                     __ptext0:
   829                           	callstack 0
   830   00161E                     _main:
   831                           	callstack 23
   832   00161E                     
   833                           ;application.c: 34:     uint8 cmpr_ret = 0;
   834   00161E  0E00               	movlw	0
   835   001620  6E30               	movwf	main@cmpr_ret^0,c
   836   001622                     
   837                           ;application.c: 35:     application_initialize();
   838   001622  EC3D  F011         	call	_application_initialize	;wreg free
   839   001626                     
   840                           ;application.c: 36:     if(tries==3) set_password();
   841   001626  0E03               	movlw	3
   842   001628  186E               	xorwf	_tries^0,w,c
   843   00162A  A4D8               	btfss	status,2,c
   844   00162C  EF1A  F00B         	goto	u4491
   845   001630  EF1C  F00B         	goto	u4490
   846   001634                     u4491:
   847   001634  EF6F  F00B         	goto	l4850
   848   001638                     u4490:
   849   001638  EC7A  F00B         	call	_set_password	;wreg free
   850   00163C  EF6F  F00B         	goto	l4850
   851   001640                     l4828:
   852                           
   853                           ;application.c: 39:     {;application.c: 40:         clear_lcd();
   854   001640  EC24  F011         	call	_clear_lcd	;wreg free
   855   001644                     
   856                           ;application.c: 41:         enter_password();
   857   001644  ECAB  F010         	call	_enter_password	;wreg free
   858   001648                     
   859                           ;application.c: 42:         cmpr_ret = compare(input, password);
   860   001648  0E45               	movlw	low _input
   861   00164A  6E1B               	movwf	compare@_input^0,c
   862   00164C  0E4B               	movlw	low _password
   863   00164E  6E1C               	movwf	compare@_password^0,c
   864   001650  ECAB  F00C         	call	_compare	;wreg free
   865   001654  6E30               	movwf	main@cmpr_ret^0,c
   866   001656                     
   867                           ;application.c: 43:         _delay((unsigned long)((750)*(4000000UL/4000.0)));
   868   001656  0E04               	movlw	4
   869   001658  6E2F               	movwf	(??_main+1)^0,c
   870   00165A  0ECF               	movlw	207
   871   00165C  6E2E               	movwf	??_main^0,c
   872   00165E  0E02               	movlw	2
   873   001660                     u4687:
   874   001660  2EE8               	decfsz	wreg,f,c
   875   001662  D7FE               	bra	u4687
   876   001664  2E2E               	decfsz	??_main^0,f,c
   877   001666  D7FC               	bra	u4687
   878   001668  2E2F               	decfsz	(??_main+1)^0,f,c
   879   00166A  D7FA               	bra	u4687
   880   00166C  0E77               	movlw	low _lcd
   881   00166E  6E0C               	movwf	lcd_4bit_send_command@lcd^0,c
   882   001670  0E01               	movlw	1
   883   001672  6E0D               	movwf	lcd_4bit_send_command@command^0,c
   884   001674  ECF1  F00F         	call	_lcd_4bit_send_command	;wreg free
   885   001678                     
   886                           ;application.c: 45:         if(cmpr_ret == 0)
   887   001678  5030               	movf	main@cmpr_ret^0,w,c
   888   00167A  A4D8               	btfss	status,2,c
   889   00167C  EF42  F00B         	goto	u4501
   890   001680  EF44  F00B         	goto	u4500
   891   001684                     u4501:
   892   001684  EF78  F00B         	goto	l352
   893   001688                     u4500:
   894   001688  0E77               	movlw	low _lcd
   895   00168A  6E15               	movwf	lcd_4bit_send_string_pos@lcd^0,c
   896   00168C  0E02               	movlw	2
   897   00168E  6E16               	movwf	lcd_4bit_send_string_pos@row^0,c
   898   001690  0E07               	movlw	7
   899   001692  6E17               	movwf	lcd_4bit_send_string_pos@column^0,c
   900   001694  0E4D               	movlw	low STR_1
   901   001696  6E18               	movwf	lcd_4bit_send_string_pos@str^0,c
   902   001698  5018               	movf	lcd_4bit_send_string_pos@str^0,w,c
   903   00169A  A4D8               	btfss	status,2,c
   904   00169C  0E10               	movlw	high __smallconst
   905   00169E  6E19               	movwf	(lcd_4bit_send_string_pos@str+1)^0,c
   906   0016A0  EC95  F00E         	call	_lcd_4bit_send_string_pos	;wreg free
   907   0016A4  0E51               	movlw	low _tries_txt
   908   0016A6  6E2B               	movwf	convert_uint8_to_string@str^0,c
   909   0016A8  506E               	movf	_tries^0,w,c
   910   0016AA  EC48  F010         	call	_convert_uint8_to_string
   911   0016AE  0E77               	movlw	low _lcd
   912   0016B0  6E15               	movwf	lcd_4bit_send_string_pos@lcd^0,c
   913   0016B2  0E02               	movlw	2
   914   0016B4  6E16               	movwf	lcd_4bit_send_string_pos@row^0,c
   915   0016B6  0E0F               	movlw	15
   916   0016B8  6E17               	movwf	lcd_4bit_send_string_pos@column^0,c
   917   0016BA  0E51               	movlw	low _tries_txt
   918   0016BC  6E18               	movwf	lcd_4bit_send_string_pos@str^0,c
   919   0016BE  6A19               	clrf	(lcd_4bit_send_string_pos@str+1)^0,c
   920   0016C0  EC95  F00E         	call	_lcd_4bit_send_string_pos	;wreg free
   921   0016C4                     
   922                           ;application.c: 50:             _delay((unsigned long)((750)*(4000000UL/4000.0)));
   923   0016C4  0E04               	movlw	4
   924   0016C6  6E2F               	movwf	(??_main+1)^0,c
   925   0016C8  0ECF               	movlw	207
   926   0016CA  6E2E               	movwf	??_main^0,c
   927   0016CC  0E02               	movlw	2
   928   0016CE                     u4697:
   929   0016CE  2EE8               	decfsz	wreg,f,c
   930   0016D0  D7FE               	bra	u4697
   931   0016D2  2E2E               	decfsz	??_main^0,f,c
   932   0016D4  D7FC               	bra	u4697
   933   0016D6  2E2F               	decfsz	(??_main+1)^0,f,c
   934   0016D8  D7FA               	bra	u4697
   935   0016DA                     
   936                           ;application.c: 51:             clear_lcd();
   937   0016DA  EC24  F011         	call	_clear_lcd	;wreg free
   938   0016DE                     l4850:
   939                           
   940                           ;application.c: 38:     while(tries--)
   941   0016DE  066E               	decf	_tries^0,f,c
   942   0016E0  286E               	incf	_tries^0,w,c
   943   0016E2  A4D8               	btfss	status,2,c
   944   0016E4  EF76  F00B         	goto	u4511
   945   0016E8  EF78  F00B         	goto	u4510
   946   0016EC                     u4511:
   947   0016EC  EF20  F00B         	goto	l4828
   948   0016F0                     u4510:
   949   0016F0                     l352:
   950   0016F0  EF00  F000         	goto	start
   951   0016F4                     __end_of_main:
   952                           	callstack 0
   953                           
   954 ;; *************** function _set_password *****************
   955 ;; Defined at:
   956 ;;		line 125 in file "application.c"
   957 ;; Parameters:    Size  Location     Type
   958 ;;		None
   959 ;; Auto vars:     Size  Location     Type
   960 ;;  l_counter       1   29[COMRAM] unsigned char 
   961 ;; Return value:  Size  Location     Type
   962 ;;                  1    wreg      void 
   963 ;; Registers used:
   964 ;;		wreg, fsr0l, fsr0h, fsr1l, fsr1h, fsr2l, fsr2h, status,2, status,0, tblptrl, tblptrh, tblptru, prodl, prodh, cstack
   965 ;; Tracked objects:
   966 ;;		On entry : 0/0
   967 ;;		On exit  : 0/0
   968 ;;		Unchanged: 0/0
   969 ;; Data sizes:     COMRAM   BANK0   BANK1   BANK2   BANK3   BANK4   BANK5   BANK6   BANK7   BANK8   BANK9  BANK10  BANK1
      +1  BANK12  BANK13  BANK14  BANK15
   970 ;;      Params:         0       0       0       0       0       0       0       0       0       0       0       0       
      +0       0       0       0       0
   971 ;;      Locals:         1       0       0       0       0       0       0       0       0       0       0       0       
      +0       0       0       0       0
   972 ;;      Temps:          2       0       0       0       0       0       0       0       0       0       0       0       
      +0       0       0       0       0
   973 ;;      Totals:         3       0       0       0       0       0       0       0       0       0       0       0       
      +0       0       0       0       0
   974 ;;Total ram usage:        3 bytes
   975 ;; Hardware stack levels used: 1
   976 ;; Hardware stack levels required when called: 6
   977 ;; This function calls:
   978 ;;		_clear_lcd
   979 ;;		_lcd_4bit_send_string
   980 ;;		_read_input
   981 ;; This function is called by:
   982 ;;		_main
   983 ;; This function uses a non-reentrant model
   984 ;;
   985                           
   986                           	psect	text1
   987   0016F4                     __ptext1:
   988                           	callstack 0
   989   0016F4                     _set_password:
   990                           	callstack 24
   991   0016F4                     
   992                           ;application.c: 127:     i = 2;
   993   0016F4  0E02               	movlw	2
   994   0016F6  6E6D               	movwf	_i^0,c
   995   0016F8                     
   996                           ;application.c: 128:     lcd_4bit_send_string(&lcd, "Set Password : ");
   997   0016F8  0E77               	movlw	low _lcd
   998   0016FA  6E0F               	movwf	lcd_4bit_send_string@lcd^0,c
   999   0016FC  0E23               	movlw	low STR_5
  1000   0016FE  6E10               	movwf	lcd_4bit_send_string@str^0,c
  1001   001700  5010               	movf	lcd_4bit_send_string@str^0,w,c
  1002   001702  A4D8               	btfss	status,2,c
  1003   001704  0E10               	movlw	high __smallconst
  1004   001706  6E11               	movwf	(lcd_4bit_send_string@str+1)^0,c
  1005   001708  EC08  F00E         	call	_lcd_4bit_send_string	;wreg free
  1006   00170C                     l4418:
  1007                           
  1008                           ;application.c: 130:     {;application.c: 131:         uint8 l_counter;;application.c: 1
      +                          32:         for(l_counter = 0; l_counter < 5; ++l_counter)
  1009   00170C  0E00               	movlw	0
  1010   00170E  6E1E               	movwf	set_password@l_counter^0,c
  1011   001710                     l4424:
  1012                           
  1013                           ;application.c: 133:         {;application.c: 134:             read_input(&password[l_co
      +                          unter] ,&flag[l_counter]);
  1014   001710  501E               	movf	set_password@l_counter^0,w,c
  1015   001712  0F4B               	addlw	low _password
  1016   001714  6E1A               	movwf	read_input@input^0,c
  1017   001716  501E               	movf	set_password@l_counter^0,w,c
  1018   001718  0F55               	addlw	low _flag
  1019   00171A  6E1B               	movwf	read_input@flag^0,c
  1020   00171C  EC1F  F010         	call	_read_input	;wreg free
  1021   001720                     
  1022                           ;application.c: 135:             _delay((unsigned long)((200)*(4000000UL/4000.0)));
  1023   001720  0E02               	movlw	2
  1024   001722  6E1D               	movwf	(??_set_password+1)^0,c
  1025   001724  0E04               	movlw	4
  1026   001726  6E1C               	movwf	??_set_password^0,c
  1027   001728  0EBA               	movlw	186
  1028   00172A                     u4707:
  1029   00172A  2EE8               	decfsz	wreg,f,c
  1030   00172C  D7FE               	bra	u4707
  1031   00172E  2E1C               	decfsz	??_set_password^0,f,c
  1032   001730  D7FC               	bra	u4707
  1033   001732  2E1D               	decfsz	(??_set_password+1)^0,f,c
  1034   001734  D7FA               	bra	u4707
  1035   001736  D000               	nop2	
  1036   001738                     
  1037                           ;application.c: 136:         }
  1038   001738  2A1E               	incf	set_password@l_counter^0,f,c
  1039   00173A  0E04               	movlw	4
  1040   00173C  641E               	cpfsgt	set_password@l_counter^0,c
  1041   00173E  EFA3  F00B         	goto	u3991
  1042   001742  EFA5  F00B         	goto	u3990
  1043   001746                     u3991:
  1044   001746  EF88  F00B         	goto	l4424
  1045   00174A                     u3990:
  1046   00174A                     
  1047                           ;application.c: 138:         if(flag[0] && flag[1] && flag[2] && flag[3]) break;
  1048   00174A  5055               	movf	_flag^0,w,c
  1049   00174C  B4D8               	btfsc	status,2,c
  1050   00174E  EFAB  F00B         	goto	u4001
  1051   001752  EFAD  F00B         	goto	u4000
  1052   001756                     u4001:
  1053   001756  EFC7  F00B         	goto	l4442
  1054   00175A                     u4000:
  1055   00175A  5056               	movf	(_flag+1)^0,w,c
  1056   00175C  B4D8               	btfsc	status,2,c
  1057   00175E  EFB3  F00B         	goto	u4011
  1058   001762  EFB5  F00B         	goto	u4010
  1059   001766                     u4011:
  1060   001766  EFC7  F00B         	goto	l4442
  1061   00176A                     u4010:
  1062   00176A  5057               	movf	(_flag+2)^0,w,c
  1063   00176C  B4D8               	btfsc	status,2,c
  1064   00176E  EFBB  F00B         	goto	u4021
  1065   001772  EFBD  F00B         	goto	u4020
  1066   001776                     u4021:
  1067   001776  EFC7  F00B         	goto	l4442
  1068   00177A                     u4020:
  1069   00177A  5058               	movf	(_flag+3)^0,w,c
  1070   00177C  B4D8               	btfsc	status,2,c
  1071   00177E  EFC3  F00B         	goto	u4031
  1072   001782  EFC5  F00B         	goto	u4030
  1073   001786                     u4031:
  1074   001786  EFC7  F00B         	goto	l4442
  1075   00178A                     u4030:
  1076   00178A  EFCB  F00B         	goto	l4444
  1077   00178E                     l4442:
  1078                           
  1079                           ;application.c: 139:         flag[0], flag[1], flag[2], flag[3] = 0;
  1080   00178E  0E00               	movlw	0
  1081   001790  6E58               	movwf	(_flag+3)^0,c
  1082   001792  EF86  F00B         	goto	l4418
  1083   001796                     l4444:
  1084                           
  1085                           ;application.c: 141:     clear_lcd();
  1086   001796  EC24  F011         	call	_clear_lcd	;wreg free
  1087   00179A                     
  1088                           ;application.c: 142:     lcd_4bit_send_string(&lcd, "Password done!");
  1089   00179A  0E77               	movlw	low _lcd
  1090   00179C  6E0F               	movwf	lcd_4bit_send_string@lcd^0,c
  1091   00179E  0E33               	movlw	low STR_6
  1092   0017A0  6E10               	movwf	lcd_4bit_send_string@str^0,c
  1093   0017A2  5010               	movf	lcd_4bit_send_string@str^0,w,c
  1094   0017A4  A4D8               	btfss	status,2,c
  1095   0017A6  0E10               	movlw	high __smallconst
  1096   0017A8  6E11               	movwf	(lcd_4bit_send_string@str+1)^0,c
  1097   0017AA  EC08  F00E         	call	_lcd_4bit_send_string	;wreg free
  1098   0017AE                     
  1099                           ;application.c: 143:     _delay((unsigned long)((750)*(4000000UL/4000.0)));
  1100   0017AE  0E04               	movlw	4
  1101   0017B0  6E1D               	movwf	(??_set_password+1)^0,c
  1102   0017B2  0ECF               	movlw	207
  1103   0017B4  6E1C               	movwf	??_set_password^0,c
  1104   0017B6  0E02               	movlw	2
  1105   0017B8                     u4717:
  1106   0017B8  2EE8               	decfsz	wreg,f,c
  1107   0017BA  D7FE               	bra	u4717
  1108   0017BC  2E1C               	decfsz	??_set_password^0,f,c
  1109   0017BE  D7FC               	bra	u4717
  1110   0017C0  2E1D               	decfsz	(??_set_password+1)^0,f,c
  1111   0017C2  D7FA               	bra	u4717
  1112   0017C4  0012               	return		;funcret
  1113   0017C6                     __end_of_set_password:
  1114                           	callstack 0
  1115                           
  1116 ;; *************** function _enter_password *****************
  1117 ;; Defined at:
  1118 ;;		line 146 in file "application.c"
  1119 ;; Parameters:    Size  Location     Type
  1120 ;;		None
  1121 ;; Auto vars:     Size  Location     Type
  1122 ;;		None
  1123 ;; Return value:  Size  Location     Type
  1124 ;;                  1    wreg      void 
  1125 ;; Registers used:
  1126 ;;		wreg, fsr0l, fsr0h, fsr1l, fsr1h, fsr2l, fsr2h, status,2, status,0, tblptrl, tblptrh, tblptru, prodl, prodh, cstack
  1127 ;; Tracked objects:
  1128 ;;		On entry : 0/0
  1129 ;;		On exit  : 0/0
  1130 ;;		Unchanged: 0/0
  1131 ;; Data sizes:     COMRAM   BANK0   BANK1   BANK2   BANK3   BANK4   BANK5   BANK6   BANK7   BANK8   BANK9  BANK10  BANK1
      +1  BANK12  BANK13  BANK14  BANK15
  1132 ;;      Params:         0       0       0       0       0       0       0       0       0       0       0       0       
      +0       0       0       0       0
  1133 ;;      Locals:         0       0       0       0       0       0       0       0       0       0       0       0       
      +0       0       0       0       0
  1134 ;;      Temps:          0       0       0       0       0       0       0       0       0       0       0       0       
      +0       0       0       0       0
  1135 ;;      Totals:         0       0       0       0       0       0       0       0       0       0       0       0       
      +0       0       0       0       0
  1136 ;;Total ram usage:        0 bytes
  1137 ;; Hardware stack levels used: 1
  1138 ;; Hardware stack levels required when called: 7
  1139 ;; This function calls:
  1140 ;;		_lcd_4bit_send_string
  1141 ;;		_memset
  1142 ;;		_read_inputs
  1143 ;; This function is called by:
  1144 ;;		_main
  1145 ;; This function uses a non-reentrant model
  1146 ;;
  1147                           
  1148                           	psect	text2
  1149   002156                     __ptext2:
  1150                           	callstack 0
  1151   002156                     _enter_password:
  1152                           	callstack 23
  1153   002156                     
  1154                           ;application.c: 148:     i = 2;
  1155   002156  0E02               	movlw	2
  1156   002158  6E6D               	movwf	_i^0,c
  1157   00215A                     
  1158                           ;application.c: 149:     lcd_4bit_send_string(&lcd, "Enter Password : ");
  1159   00215A  0E77               	movlw	low _lcd
  1160   00215C  6E0F               	movwf	lcd_4bit_send_string@lcd^0,c
  1161   00215E  0E11               	movlw	low STR_7
  1162   002160  6E10               	movwf	lcd_4bit_send_string@str^0,c
  1163   002162  5010               	movf	lcd_4bit_send_string@str^0,w,c
  1164   002164  A4D8               	btfss	status,2,c
  1165   002166  0E10               	movlw	high __smallconst
  1166   002168  6E11               	movwf	(lcd_4bit_send_string@str+1)^0,c
  1167   00216A  EC08  F00E         	call	_lcd_4bit_send_string	;wreg free
  1168   00216E                     
  1169                           ;application.c: 150:     memset(input, '\0', 5);
  1170   00216E  0E45               	movlw	low _input
  1171   002170  6E01               	movwf	memset@dest^0,c
  1172   002172  0E00               	movlw	0
  1173   002174  6E03               	movwf	(memset@c+1)^0,c
  1174   002176  0E00               	movlw	0
  1175   002178  6E02               	movwf	memset@c^0,c
  1176   00217A  0E00               	movlw	0
  1177   00217C  6E05               	movwf	(memset@n+1)^0,c
  1178   00217E  0E05               	movlw	5
  1179   002180  6E04               	movwf	memset@n^0,c
  1180   002182  ECFA  F010         	call	_memset	;wreg free
  1181   002186                     
  1182                           ;application.c: 151:     read_inputs();
  1183   002186  EC53  F00E         	call	_read_inputs	;wreg free
  1184   00218A  0012               	return		;funcret
  1185   00218C                     __end_of_enter_password:
  1186                           	callstack 0
  1187                           
  1188 ;; *************** function _read_inputs *****************
  1189 ;; Defined at:
  1190 ;;		line 82 in file "application.c"
  1191 ;; Parameters:    Size  Location     Type
  1192 ;;		None
  1193 ;; Auto vars:     Size  Location     Type
  1194 ;;  l_counter       1   29[COMRAM] unsigned char 
  1195 ;; Return value:  Size  Location     Type
  1196 ;;                  1    wreg      void 
  1197 ;; Registers used:
  1198 ;;		wreg, fsr1l, fsr1h, fsr2l, fsr2h, status,2, status,0, tblptrl, tblptrh, tblptru, prodl, prodh, cstack
  1199 ;; Tracked objects:
  1200 ;;		On entry : 0/0
  1201 ;;		On exit  : 0/0
  1202 ;;		Unchanged: 0/0
  1203 ;; Data sizes:     COMRAM   BANK0   BANK1   BANK2   BANK3   BANK4   BANK5   BANK6   BANK7   BANK8   BANK9  BANK10  BANK1
      +1  BANK12  BANK13  BANK14  BANK15
  1204 ;;      Params:         0       0       0       0       0       0       0       0       0       0       0       0       
      +0       0       0       0       0
  1205 ;;      Locals:         1       0       0       0       0       0       0       0       0       0       0       0       
      +0       0       0       0       0
  1206 ;;      Temps:          2       0       0       0       0       0       0       0       0       0       0       0       
      +0       0       0       0       0
  1207 ;;      Totals:         3       0       0       0       0       0       0       0       0       0       0       0       
      +0       0       0       0       0
  1208 ;;Total ram usage:        3 bytes
  1209 ;; Hardware stack levels used: 1
  1210 ;; Hardware stack levels required when called: 6
  1211 ;; This function calls:
  1212 ;;		_read_input
  1213 ;; This function is called by:
  1214 ;;		_enter_password
  1215 ;; This function uses a non-reentrant model
  1216 ;;
  1217                           
  1218                           	psect	text3
  1219   001CA6                     __ptext3:
  1220                           	callstack 0
  1221   001CA6                     _read_inputs:
  1222                           	callstack 23
  1223   001CA6                     l365:
  1224   001CA6                     
  1225                           ;application.c: 85:     {;application.c: 86:         uint8 l_counter;;application.c: 87:
      +                                   for(l_counter = 0; l_counter < 5; ++l_counter)
  1226   001CA6  0E00               	movlw	0
  1227   001CA8  6E1E               	movwf	read_inputs@l_counter^0,c
  1228   001CAA                     l4320:
  1229                           
  1230                           ;application.c: 88:         {;application.c: 89:             read_input(&input[l_counter
      +                          ] ,&flag[l_counter]);
  1231   001CAA  501E               	movf	read_inputs@l_counter^0,w,c
  1232   001CAC  0F45               	addlw	low _input
  1233   001CAE  6E1A               	movwf	read_input@input^0,c
  1234   001CB0  501E               	movf	read_inputs@l_counter^0,w,c
  1235   001CB2  0F55               	addlw	low _flag
  1236   001CB4  6E1B               	movwf	read_input@flag^0,c
  1237   001CB6  EC1F  F010         	call	_read_input	;wreg free
  1238   001CBA                     
  1239                           ;application.c: 90:             _delay((unsigned long)((200)*(4000000UL/4000.0)));
  1240   001CBA  0E02               	movlw	2
  1241   001CBC  6E1D               	movwf	(??_read_inputs+1)^0,c
  1242   001CBE  0E04               	movlw	4
  1243   001CC0  6E1C               	movwf	??_read_inputs^0,c
  1244   001CC2  0EBA               	movlw	186
  1245   001CC4                     u4727:
  1246   001CC4  2EE8               	decfsz	wreg,f,c
  1247   001CC6  D7FE               	bra	u4727
  1248   001CC8  2E1C               	decfsz	??_read_inputs^0,f,c
  1249   001CCA  D7FC               	bra	u4727
  1250   001CCC  2E1D               	decfsz	(??_read_inputs+1)^0,f,c
  1251   001CCE  D7FA               	bra	u4727
  1252   001CD0  D000               	nop2	
  1253   001CD2                     
  1254                           ;application.c: 91:         }
  1255   001CD2  2A1E               	incf	read_inputs@l_counter^0,f,c
  1256   001CD4  0E04               	movlw	4
  1257   001CD6  641E               	cpfsgt	read_inputs@l_counter^0,c
  1258   001CD8  EF70  F00E         	goto	u3861
  1259   001CDC  EF72  F00E         	goto	u3860
  1260   001CE0                     u3861:
  1261   001CE0  EF55  F00E         	goto	l4320
  1262   001CE4                     u3860:
  1263   001CE4                     
  1264                           ;application.c: 93:             if(flag[0] && flag[1] && flag[2] && flag[3]) break;
  1265   001CE4  5055               	movf	_flag^0,w,c
  1266   001CE6  B4D8               	btfsc	status,2,c
  1267   001CE8  EF78  F00E         	goto	u3871
  1268   001CEC  EF7A  F00E         	goto	u3870
  1269   001CF0                     u3871:
  1270   001CF0  EF53  F00E         	goto	l365
  1271   001CF4                     u3870:
  1272   001CF4  5056               	movf	(_flag+1)^0,w,c
  1273   001CF6  B4D8               	btfsc	status,2,c
  1274   001CF8  EF80  F00E         	goto	u3881
  1275   001CFC  EF82  F00E         	goto	u3880
  1276   001D00                     u3881:
  1277   001D00  EF53  F00E         	goto	l365
  1278   001D04                     u3880:
  1279   001D04  5057               	movf	(_flag+2)^0,w,c
  1280   001D06  B4D8               	btfsc	status,2,c
  1281   001D08  EF88  F00E         	goto	u3891
  1282   001D0C  EF8A  F00E         	goto	u3890
  1283   001D10                     u3891:
  1284   001D10  EF53  F00E         	goto	l365
  1285   001D14                     u3890:
  1286   001D14  5058               	movf	(_flag+3)^0,w,c
  1287   001D16  B4D8               	btfsc	status,2,c
  1288   001D18  EF90  F00E         	goto	u3901
  1289   001D1C  EF92  F00E         	goto	u3900
  1290   001D20                     u3901:
  1291   001D20  EF53  F00E         	goto	l365
  1292   001D24                     u3900:
  1293   001D24                     
  1294                           ;application.c: 95:     flag[0], flag[1], flag[2], flag[3] = 0;
  1295   001D24  0E00               	movlw	0
  1296   001D26  6E58               	movwf	(_flag+3)^0,c
  1297   001D28  0012               	return		;funcret
  1298   001D2A                     __end_of_read_inputs:
  1299                           	callstack 0
  1300                           
  1301 ;; *************** function _read_input *****************
  1302 ;; Defined at:
  1303 ;;		line 66 in file "application.c"
  1304 ;; Parameters:    Size  Location     Type
  1305 ;;  input           1   25[COMRAM] PTR unsigned char 
  1306 ;;		 -> password(6), input(6), 
  1307 ;;  flag            1   26[COMRAM] PTR unsigned char 
  1308 ;;		 -> flag(4), 
  1309 ;; Auto vars:     Size  Location     Type
  1310 ;;		None
  1311 ;; Return value:  Size  Location     Type
  1312 ;;                  1    wreg      void 
  1313 ;; Registers used:
  1314 ;;		wreg, fsr1l, fsr1h, fsr2l, fsr2h, status,2, status,0, tblptrl, tblptrh, tblptru, prodl, prodh, cstack
  1315 ;; Tracked objects:
  1316 ;;		On entry : 0/0
  1317 ;;		On exit  : 0/0
  1318 ;;		Unchanged: 0/0
  1319 ;; Data sizes:     COMRAM   BANK0   BANK1   BANK2   BANK3   BANK4   BANK5   BANK6   BANK7   BANK8   BANK9  BANK10  BANK1
      +1  BANK12  BANK13  BANK14  BANK15
  1320 ;;      Params:         2       0       0       0       0       0       0       0       0       0       0       0       
      +0       0       0       0       0
  1321 ;;      Locals:         0       0       0       0       0       0       0       0       0       0       0       0       
      +0       0       0       0       0
  1322 ;;      Temps:          0       0       0       0       0       0       0       0       0       0       0       0       
      +0       0       0       0       0
  1323 ;;      Totals:         2       0       0       0       0       0       0       0       0       0       0       0       
      +0       0       0       0       0
  1324 ;;Total ram usage:        2 bytes
  1325 ;; Hardware stack levels used: 1
  1326 ;; Hardware stack levels required when called: 5
  1327 ;; This function calls:
  1328 ;;		_keypad_get_value
  1329 ;;		_lcd_4bit_send_char_data_pos
  1330 ;; This function is called by:
  1331 ;;		_read_inputs
  1332 ;;		_set_password
  1333 ;; This function uses a non-reentrant model
  1334 ;;
  1335                           
  1336                           	psect	text4
  1337   00203E                     __ptext4:
  1338                           	callstack 0
  1339   00203E                     _read_input:
  1340                           	callstack 24
  1341   00203E                     
  1342                           ;application.c: 66: static void read_input(uint8* input,uint8* flag);application.c: 67: 
      +                          {;application.c: 68:     *flag = 0;
  1343   00203E  501B               	movf	read_input@flag^0,w,c
  1344   002040  6ED9               	movwf	fsr2l,c
  1345   002042  6ADA               	clrf	fsr2h,c
  1346   002044  6ADF               	clrf	indf2,c
  1347   002046                     l4216:
  1348                           
  1349                           ;application.c: 70:         {;application.c: 71:             keypad_get_value(&keypad, i
      +                          nput);
  1350   002046  0E6F               	movlw	low _keypad
  1351   002048  6E09               	movwf	keypad_get_value@_keypad_obj^0,c
  1352   00204A  C01A  F00A         	movff	read_input@input,keypad_get_value@value
  1353   00204E  EC9E  F00A         	call	_keypad_get_value	;wreg free
  1354   002052                     
  1355                           ;application.c: 72:             if(*input != 0)
  1356   002052  501A               	movf	read_input@input^0,w,c
  1357   002054  6ED9               	movwf	fsr2l,c
  1358   002056  6ADA               	clrf	fsr2h,c
  1359   002058  50DF               	movf	indf2,w,c
  1360   00205A  B4D8               	btfsc	status,2,c
  1361   00205C  EF32  F010         	goto	u3741
  1362   002060  EF34  F010         	goto	u3740
  1363   002064                     u3741:
  1364   002064  EF23  F010         	goto	l4216
  1365   002068                     u3740:
  1366   002068                     
  1367                           ;application.c: 73:             {;application.c: 74:                 *flag = 1;
  1368   002068  501B               	movf	read_input@flag^0,w,c
  1369   00206A  6ED9               	movwf	fsr2l,c
  1370   00206C  6ADA               	clrf	fsr2h,c
  1371   00206E  0E01               	movlw	1
  1372   002070  6EDF               	movwf	indf2,c
  1373   002072                     
  1374                           ;application.c: 75:                 lcd_4bit_send_char_data_pos(&lcd, 3, i, *input);
  1375   002072  0E77               	movlw	low _lcd
  1376   002074  6E15               	movwf	lcd_4bit_send_char_data_pos@lcd^0,c
  1377   002076  0E03               	movlw	3
  1378   002078  6E16               	movwf	lcd_4bit_send_char_data_pos@row^0,c
  1379   00207A  C06D  F017         	movff	_i,lcd_4bit_send_char_data_pos@column
  1380   00207E  501A               	movf	read_input@input^0,w,c
  1381   002080  6ED9               	movwf	fsr2l,c
  1382   002082  6ADA               	clrf	fsr2h,c
  1383   002084  50DF               	movf	indf2,w,c
  1384   002086  6E18               	movwf	lcd_4bit_send_char_data_pos@data^0,c
  1385   002088  EC95  F00F         	call	_lcd_4bit_send_char_data_pos	;wreg free
  1386   00208C                     
  1387                           ;application.c: 76:                 i++;
  1388   00208C  2A6D               	incf	_i^0,f,c
  1389   00208E  0012               	return		;funcret
  1390   002090                     __end_of_read_input:
  1391                           	callstack 0
  1392                           
  1393 ;; *************** function _lcd_4bit_send_char_data_pos *****************
  1394 ;; Defined at:
  1395 ;;		line 113 in file "ECU_layer/LCD/LCD.c"
  1396 ;; Parameters:    Size  Location     Type
  1397 ;;  lcd             1   20[COMRAM] PTR const struct .
  1398 ;;		 -> lcd(6), 
  1399 ;;  row             1   21[COMRAM] unsigned char 
  1400 ;;  column          1   22[COMRAM] unsigned char 
  1401 ;;  data            1   23[COMRAM] unsigned char 
  1402 ;; Auto vars:     Size  Location     Type
  1403 ;;  ret             1   24[COMRAM] unsigned char 
  1404 ;; Return value:  Size  Location     Type
  1405 ;;                  1    wreg      unsigned char 
  1406 ;; Registers used:
  1407 ;;		wreg, fsr2l, fsr2h, status,2, status,0, prodl, prodh, cstack
  1408 ;; Tracked objects:
  1409 ;;		On entry : 0/0
  1410 ;;		On exit  : 0/0
  1411 ;;		Unchanged: 0/0
  1412 ;; Data sizes:     COMRAM   BANK0   BANK1   BANK2   BANK3   BANK4   BANK5   BANK6   BANK7   BANK8   BANK9  BANK10  BANK1
      +1  BANK12  BANK13  BANK14  BANK15
  1413 ;;      Params:         4       0       0       0       0       0       0       0       0       0       0       0       
      +0       0       0       0       0
  1414 ;;      Locals:         1       0       0       0       0       0       0       0       0       0       0       0       
      +0       0       0       0       0
  1415 ;;      Temps:          0       0       0       0       0       0       0       0       0       0       0       0       
      +0       0       0       0       0
  1416 ;;      Totals:         5       0       0       0       0       0       0       0       0       0       0       0       
      +0       0       0       0       0
  1417 ;;Total ram usage:        5 bytes
  1418 ;; Hardware stack levels used: 1
  1419 ;; Hardware stack levels required when called: 4
  1420 ;; This function calls:
  1421 ;;		_lcd_4bit_send_char_data
  1422 ;;		_lcd_4bit_set_cursor
  1423 ;; This function is called by:
  1424 ;;		_read_input
  1425 ;;		_lcd_4bit_send_custom_character
  1426 ;; This function uses a non-reentrant model
  1427 ;;
  1428                           
  1429                           	psect	text5
  1430   001F2A                     __ptext5:
  1431                           	callstack 0
  1432   001F2A                     _lcd_4bit_send_char_data_pos:
  1433                           	callstack 24
  1434   001F2A                     
  1435                           ;ECU_layer/LCD/LCD.c: 116:     if(lcd == ((void*)0) || row > 4 || column > 20)
  1436   001F2A  5015               	movf	lcd_4bit_send_char_data_pos@lcd^0,w,c
  1437   001F2C  B4D8               	btfsc	status,2,c
  1438   001F2E  EF9B  F00F         	goto	u3681
  1439   001F32  EF9D  F00F         	goto	u3680
  1440   001F36                     u3681:
  1441   001F36  EFAD  F00F         	goto	l4174
  1442   001F3A                     u3680:
  1443   001F3A  0E05               	movlw	5
  1444   001F3C  6016               	cpfslt	lcd_4bit_send_char_data_pos@row^0,c
  1445   001F3E  EFA3  F00F         	goto	u3691
  1446   001F42  EFA5  F00F         	goto	u3690
  1447   001F46                     u3691:
  1448   001F46  EFAD  F00F         	goto	l4174
  1449   001F4A                     u3690:
  1450   001F4A  0E14               	movlw	20
  1451   001F4C  6417               	cpfsgt	lcd_4bit_send_char_data_pos@column^0,c
  1452   001F4E  EFAB  F00F         	goto	u3701
  1453   001F52  EFAD  F00F         	goto	u3700
  1454   001F56                     u3701:
  1455   001F56  EFB1  F00F         	goto	l4176
  1456   001F5A                     u3700:
  1457   001F5A                     l4174:
  1458                           
  1459                           ;ECU_layer/LCD/LCD.c: 117:     {;ECU_layer/LCD/LCD.c: 118:         ret = (Std_ReturnType
      +                          ) 0x00;
  1460   001F5A  0E00               	movlw	0
  1461   001F5C  6E19               	movwf	lcd_4bit_send_char_data_pos@ret^0,c
  1462                           
  1463                           ;ECU_layer/LCD/LCD.c: 119:     }
  1464   001F5E  EFC1  F00F         	goto	l4178
  1465   001F62                     l4176:
  1466                           
  1467                           ;ECU_layer/LCD/LCD.c: 121:     {;ECU_layer/LCD/LCD.c: 122:         ret = lcd_4bit_set_cu
      +                          rsor(lcd, row, column);
  1468   001F62  C015  F00F         	movff	lcd_4bit_send_char_data_pos@lcd,lcd_4bit_set_cursor@lcd
  1469   001F66  C016  F010         	movff	lcd_4bit_send_char_data_pos@row,lcd_4bit_set_cursor@row
  1470   001F6A  C017  F011         	movff	lcd_4bit_send_char_data_pos@column,lcd_4bit_set_cursor@column
  1471   001F6E  ECE3  F00B         	call	_lcd_4bit_set_cursor	;wreg free
  1472   001F72  6E19               	movwf	lcd_4bit_send_char_data_pos@ret^0,c
  1473                           
  1474                           ;ECU_layer/LCD/LCD.c: 123:         ret = lcd_4bit_send_char_data(lcd, data);
  1475   001F74  C015  F00C         	movff	lcd_4bit_send_char_data_pos@lcd,lcd_4bit_send_char_data@lcd
  1476   001F78  C018  F00D         	movff	lcd_4bit_send_char_data_pos@data,lcd_4bit_send_char_data@data
  1477   001F7C  ECC3  F00F         	call	_lcd_4bit_send_char_data	;wreg free
  1478   001F80  6E19               	movwf	lcd_4bit_send_char_data_pos@ret^0,c
  1479   001F82                     l4178:
  1480                           
  1481                           ;ECU_layer/LCD/LCD.c: 126:     return ret;
  1482   001F82  5019               	movf	lcd_4bit_send_char_data_pos@ret^0,w,c
  1483   001F84  0012               	return		;funcret
  1484   001F86                     __end_of_lcd_4bit_send_char_data_pos:
  1485                           	callstack 0
  1486                           
  1487 ;; *************** function _keypad_get_value *****************
  1488 ;; Defined at:
  1489 ;;		line 47 in file "ECU_layer/Keypad/keypad.c"
  1490 ;; Parameters:    Size  Location     Type
  1491 ;;  _keypad_obj     1    8[COMRAM] PTR const struct .
  1492 ;;		 -> keypad(8), 
  1493 ;;  value           1    9[COMRAM] PTR unsigned char 
  1494 ;;		 -> password(6), input(6), 
  1495 ;; Auto vars:     Size  Location     Type
  1496 ;;  l_columns_co    1   14[COMRAM] unsigned char 
  1497 ;;  l_rows_count    1   13[COMRAM] unsigned char 
  1498 ;;  l_counter       1   12[COMRAM] unsigned char 
  1499 ;;  column_logic    1   11[COMRAM] unsigned char 
  1500 ;;  ret             1    0        unsigned char 
  1501 ;; Return value:  Size  Location     Type
  1502 ;;                  1    wreg      unsigned char 
  1503 ;; Registers used:
  1504 ;;		wreg, fsr1l, fsr1h, fsr2l, fsr2h, status,2, status,0, tblptrl, tblptrh, tblptru, prodl, prodh, cstack
  1505 ;; Tracked objects:
  1506 ;;		On entry : 0/0
  1507 ;;		On exit  : 0/0
  1508 ;;		Unchanged: 0/0
  1509 ;; Data sizes:     COMRAM   BANK0   BANK1   BANK2   BANK3   BANK4   BANK5   BANK6   BANK7   BANK8   BANK9  BANK10  BANK1
      +1  BANK12  BANK13  BANK14  BANK15
  1510 ;;      Params:         2       0       0       0       0       0       0       0       0       0       0       0       
      +0       0       0       0       0
  1511 ;;      Locals:         4       0       0       0       0       0       0       0       0       0       0       0       
      +0       0       0       0       0
  1512 ;;      Temps:          1       0       0       0       0       0       0       0       0       0       0       0       
      +0       0       0       0       0
  1513 ;;      Totals:         7       0       0       0       0       0       0       0       0       0       0       0       
      +0       0       0       0       0
  1514 ;;Total ram usage:        7 bytes
  1515 ;; Hardware stack levels used: 1
  1516 ;; Hardware stack levels required when called: 1
  1517 ;; This function calls:
  1518 ;;		_gpio_pin_read_logic
  1519 ;;		_gpio_pin_write_logic
  1520 ;; This function is called by:
  1521 ;;		_read_input
  1522 ;; This function uses a non-reentrant model
  1523 ;;
  1524                           
  1525                           	psect	text6
  1526   00153C                     __ptext6:
  1527                           	callstack 0
  1528   00153C                     _keypad_get_value:
  1529                           	callstack 27
  1530   00153C                     
  1531                           ;ECU_layer/Keypad/keypad.c: 50:     uint8 l_rows_counter = 0,l_columns_counter = 0,l_cou
      +                          nter = 0;
  1532   00153C  0E00               	movlw	0
  1533   00153E  6E0E               	movwf	keypad_get_value@l_rows_counter^0,c
  1534   001540  0E00               	movlw	0
  1535   001542  6E0F               	movwf	keypad_get_value@l_columns_counter^0,c
  1536   001544  0E00               	movlw	0
  1537   001546  6E0D               	movwf	keypad_get_value@l_counter^0,c
  1538                           
  1539                           ;ECU_layer/Keypad/keypad.c: 51:     uint8 column_logic = 0;
  1540   001548  0E00               	movlw	0
  1541   00154A  6E0C               	movwf	keypad_get_value@column_logic^0,c
  1542                           
  1543                           ;ECU_layer/Keypad/keypad.c: 52:     if(((void*)0) == _keypad_obj || value == ((void*)0))
  1544   00154C  5009               	movf	keypad_get_value@_keypad_obj^0,w,c
  1545   00154E  B4D8               	btfsc	status,2,c
  1546   001550  EFAC  F00A         	goto	u3621
  1547   001554  EFAE  F00A         	goto	u3620
  1548   001558                     u3621:
  1549   001558  EFB6  F00A         	goto	l4124
  1550   00155C                     u3620:
  1551   00155C  500A               	movf	keypad_get_value@value^0,w,c
  1552   00155E  A4D8               	btfss	status,2,c
  1553   001560  EFB4  F00A         	goto	u3631
  1554   001564  EFB6  F00A         	goto	u3630
  1555   001568                     u3631:
  1556   001568  EFB8  F00A         	goto	l4126
  1557   00156C                     u3630:
  1558   00156C                     l4124:
  1559                           
  1560                           ;ECU_layer/Keypad/keypad.c: 55:     }
  1561   00156C  EF0E  F00B         	goto	l115
  1562   001570                     l4126:
  1563                           
  1564                           ;ECU_layer/Keypad/keypad.c: 57:     {;ECU_layer/Keypad/keypad.c: 58:         for(l_rows_
      +                          counter = 0; l_rows_counter < 4; l_rows_counter++)
  1565   001570  0E00               	movlw	0
  1566   001572  6E0E               	movwf	keypad_get_value@l_rows_counter^0,c
  1567   001574                     l4132:
  1568                           
  1569                           ;ECU_layer/Keypad/keypad.c: 59:         {;ECU_layer/Keypad/keypad.c: 60:             for
      +                          (l_counter = 0; l_counter < 4; l_counter++)
  1570   001574  0E00               	movlw	0
  1571   001576  6E0D               	movwf	keypad_get_value@l_counter^0,c
  1572   001578                     l4138:
  1573   001578  5009               	movf	keypad_get_value@_keypad_obj^0,w,c
  1574   00157A  240D               	addwf	keypad_get_value@l_counter^0,w,c
  1575   00157C  6E01               	movwf	gpio_pin_write_logic@_pin_config^0,c
  1576   00157E  0E00               	movlw	0
  1577   001580  6E02               	movwf	gpio_pin_write_logic@logic^0,c
  1578   001582  ECA3  F009         	call	_gpio_pin_write_logic	;wreg free
  1579   001586                     
  1580                           ;ECU_layer/Keypad/keypad.c: 63:             }
  1581   001586  2A0D               	incf	keypad_get_value@l_counter^0,f,c
  1582   001588  0E03               	movlw	3
  1583   00158A  640D               	cpfsgt	keypad_get_value@l_counter^0,c
  1584   00158C  EFCA  F00A         	goto	u3641
  1585   001590  EFCC  F00A         	goto	u3640
  1586   001594                     u3641:
  1587   001594  EFBC  F00A         	goto	l4138
  1588   001598                     u3640:
  1589   001598                     
  1590                           ;ECU_layer/Keypad/keypad.c: 64:             gpio_pin_write_logic(&(_keypad_obj->keypad_r
      +                          ows_pin[l_rows_counter]), GPIO_HIGH);
  1591   001598  5009               	movf	keypad_get_value@_keypad_obj^0,w,c
  1592   00159A  240E               	addwf	keypad_get_value@l_rows_counter^0,w,c
  1593   00159C  6E01               	movwf	gpio_pin_write_logic@_pin_config^0,c
  1594   00159E  0E01               	movlw	1
  1595   0015A0  6E02               	movwf	gpio_pin_write_logic@logic^0,c
  1596   0015A2  ECA3  F009         	call	_gpio_pin_write_logic	;wreg free
  1597   0015A6                     
  1598                           ;ECU_layer/Keypad/keypad.c: 65:             _delay((unsigned long)((10)*(4000000UL/4000.
      +                          0)));
  1599   0015A6  0E0D               	movlw	13
  1600   0015A8  6E0B               	movwf	??_keypad_get_value^0,c
  1601   0015AA  0EFC               	movlw	252
  1602   0015AC                     u4737:
  1603   0015AC  2EE8               	decfsz	wreg,f,c
  1604   0015AE  D7FE               	bra	u4737
  1605   0015B0  2E0B               	decfsz	??_keypad_get_value^0,f,c
  1606   0015B2  D7FC               	bra	u4737
  1607   0015B4                     
  1608                           ;ECU_layer/Keypad/keypad.c: 66:             for(l_columns_counter =0; l_columns_counter 
      +                          < 4; l_columns_counter++)
  1609   0015B4  0E00               	movlw	0
  1610   0015B6  6E0F               	movwf	keypad_get_value@l_columns_counter^0,c
  1611   0015B8                     l4154:
  1612   0015B8  5009               	movf	keypad_get_value@_keypad_obj^0,w,c
  1613   0015BA  240F               	addwf	keypad_get_value@l_columns_counter^0,w,c
  1614   0015BC  0F04               	addlw	4
  1615   0015BE  6E01               	movwf	gpio_pin_read_logic@_pin_config^0,c
  1616   0015C0  0E0C               	movlw	low keypad_get_value@column_logic
  1617   0015C2  6E02               	movwf	gpio_pin_read_logic@logic^0,c
  1618   0015C4  ECB6  F00D         	call	_gpio_pin_read_logic	;wreg free
  1619   0015C8                     
  1620                           ;ECU_layer/Keypad/keypad.c: 69:                 if(GPIO_HIGH == column_logic)
  1621   0015C8  040C               	decf	keypad_get_value@column_logic^0,w,c
  1622   0015CA  A4D8               	btfss	status,2,c
  1623   0015CC  EFEA  F00A         	goto	u3651
  1624   0015D0  EFEC  F00A         	goto	u3650
  1625   0015D4                     u3651:
  1626   0015D4  EFFC  F00A         	goto	l4160
  1627   0015D8                     u3650:
  1628   0015D8                     
  1629                           ;ECU_layer/Keypad/keypad.c: 70:                 {;ECU_layer/Keypad/keypad.c: 71:        
      +                                       *value = keypad_values[l_rows_counter][l_columns_counter];
  1630   0015D8  500E               	movf	keypad_get_value@l_rows_counter^0,w,c
  1631   0015DA  0D04               	mullw	4
  1632   0015DC  50F3               	movf	243,w,c
  1633   0015DE  0F01               	addlw	low _keypad_values
  1634   0015E0  240F               	addwf	keypad_get_value@l_columns_counter^0,w,c
  1635   0015E2  6E0B               	movwf	??_keypad_get_value^0,c
  1636   0015E4  C00B  FFF6         	movff	??_keypad_get_value,tblptrl
  1637   0015E8                     	if	1	;There is more than 1 active tblptr byte
  1638   0015E8  0E10               	movlw	high __smallconst
  1639   0015EA  6EF7               	movwf	tblptrh,c
  1640   0015EC                     	endif
  1641   0015EC                     	if	0	;tblptru may be non-zero
  1642   0015EC                     	endif
  1643   0015EC                     	if	0	;tblptru may be non-zero
  1644   0015EC                     	endif
  1645   0015EC  500A               	movf	keypad_get_value@value^0,w,c
  1646   0015EE  6ED9               	movwf	fsr2l,c
  1647   0015F0  6ADA               	clrf	fsr2h,c
  1648   0015F2  0008               	tblrd		*
  1649   0015F4  CFF5 FFDF          	movff	tablat,indf2
  1650   0015F8                     l4160:
  1651                           
  1652                           ;ECU_layer/Keypad/keypad.c: 73:             }
  1653   0015F8  2A0F               	incf	keypad_get_value@l_columns_counter^0,f,c
  1654   0015FA  0E03               	movlw	3
  1655   0015FC  640F               	cpfsgt	keypad_get_value@l_columns_counter^0,c
  1656   0015FE  EF03  F00B         	goto	u3661
  1657   001602  EF05  F00B         	goto	u3660
  1658   001606                     u3661:
  1659   001606  EFDC  F00A         	goto	l4154
  1660   00160A                     u3660:
  1661   00160A                     
  1662                           ;ECU_layer/Keypad/keypad.c: 74:         }
  1663   00160A  2A0E               	incf	keypad_get_value@l_rows_counter^0,f,c
  1664   00160C  0E03               	movlw	3
  1665   00160E  640E               	cpfsgt	keypad_get_value@l_rows_counter^0,c
  1666   001610  EF0C  F00B         	goto	u3671
  1667   001614  EF0E  F00B         	goto	u3670
  1668   001618                     u3671:
  1669   001618  EFBA  F00A         	goto	l4132
  1670   00161C                     u3670:
  1671   00161C                     l115:
  1672   00161C  0012               	return		;funcret
  1673   00161E                     __end_of_keypad_get_value:
  1674                           	callstack 0
  1675                           
  1676 ;; *************** function _gpio_pin_read_logic *****************
  1677 ;; Defined at:
  1678 ;;		line 114 in file "MCAL_layer/GPIO/hal_gpio.c"
  1679 ;; Parameters:    Size  Location     Type
  1680 ;;  _pin_config     1    0[COMRAM] PTR const struct .
  1681 ;;		 -> keypad$keypad_columns_pin(4), keypad(8), 
  1682 ;;  logic           1    1[COMRAM] PTR enum E2978
  1683 ;;		 -> keypad_get_value@column_logic(1), Button_read@button_logic(1), 
  1684 ;; Auto vars:     Size  Location     Type
  1685 ;;  ret             1    6[COMRAM] unsigned char 
  1686 ;; Return value:  Size  Location     Type
  1687 ;;                  1    wreg      unsigned char 
  1688 ;; Registers used:
  1689 ;;		wreg, fsr1l, fsr1h, fsr2l, fsr2h, status,2, status,0, prodl, prodh
  1690 ;; Tracked objects:
  1691 ;;		On entry : 0/0
  1692 ;;		On exit  : 0/0
  1693 ;;		Unchanged: 0/0
  1694 ;; Data sizes:     COMRAM   BANK0   BANK1   BANK2   BANK3   BANK4   BANK5   BANK6   BANK7   BANK8   BANK9  BANK10  BANK1
      +1  BANK12  BANK13  BANK14  BANK15
  1695 ;;      Params:         2       0       0       0       0       0       0       0       0       0       0       0       
      +0       0       0       0       0
  1696 ;;      Locals:         1       0       0       0       0       0       0       0       0       0       0       0       
      +0       0       0       0       0
  1697 ;;      Temps:          4       0       0       0       0       0       0       0       0       0       0       0       
      +0       0       0       0       0
  1698 ;;      Totals:         7       0       0       0       0       0       0       0       0       0       0       0       
      +0       0       0       0       0
  1699 ;;Total ram usage:        7 bytes
  1700 ;; Hardware stack levels used: 1
  1701 ;; This function calls:
  1702 ;;		Nothing
  1703 ;; This function is called by:
  1704 ;;		_keypad_get_value
  1705 ;;		_Button_read
  1706 ;; This function uses a non-reentrant model
  1707 ;;
  1708                           
  1709                           	psect	text7
  1710   001B6C                     __ptext7:
  1711                           	callstack 0
  1712   001B6C                     _gpio_pin_read_logic:
  1713                           	callstack 27
  1714   001B6C                     
  1715                           ;MCAL_layer/GPIO/hal_gpio.c: 115:     Std_ReturnType ret = (Std_ReturnType) 0x01;
  1716   001B6C  0E01               	movlw	1
  1717   001B6E  6E07               	movwf	gpio_pin_read_logic@ret^0,c
  1718                           
  1719                           ;MCAL_layer/GPIO/hal_gpio.c: 116:     if(((void*)0) == _pin_config || ((void*)0) == logi
      +                          c || _pin_config->pin > 8 -1)
  1720   001B70  5001               	movf	gpio_pin_read_logic@_pin_config^0,w,c
  1721   001B72  B4D8               	btfsc	status,2,c
  1722   001B74  EFBE  F00D         	goto	u3521
  1723   001B78  EFC0  F00D         	goto	u3520
  1724   001B7C                     u3521:
  1725   001B7C  EFD8  F00D         	goto	l4058
  1726   001B80                     u3520:
  1727   001B80  5002               	movf	gpio_pin_read_logic@logic^0,w,c
  1728   001B82  B4D8               	btfsc	status,2,c
  1729   001B84  EFC6  F00D         	goto	u3531
  1730   001B88  EFC8  F00D         	goto	u3530
  1731   001B8C                     u3531:
  1732   001B8C  EFD8  F00D         	goto	l4058
  1733   001B90                     u3530:
  1734   001B90  5001               	movf	gpio_pin_read_logic@_pin_config^0,w,c
  1735   001B92  6ED9               	movwf	fsr2l,c
  1736   001B94  6ADA               	clrf	fsr2h,c
  1737   001B96  30DF               	rrcf	223,w,c
  1738   001B98  32E8               	rrcf	wreg,f,c
  1739   001B9A  32E8               	rrcf	wreg,f,c
  1740   001B9C  0B07               	andlw	7
  1741   001B9E  6E03               	movwf	??_gpio_pin_read_logic^0,c
  1742   001BA0  0E07               	movlw	7
  1743   001BA2  6403               	cpfsgt	??_gpio_pin_read_logic^0,c
  1744   001BA4  EFD6  F00D         	goto	u3541
  1745   001BA8  EFD8  F00D         	goto	u3540
  1746   001BAC                     u3541:
  1747   001BAC  EFDC  F00D         	goto	l4060
  1748   001BB0                     u3540:
  1749   001BB0                     l4058:
  1750                           
  1751                           ;MCAL_layer/GPIO/hal_gpio.c: 117:     {;MCAL_layer/GPIO/hal_gpio.c: 118:         ret = (
      +                          Std_ReturnType) 0x00;
  1752   001BB0  0E00               	movlw	0
  1753   001BB2  6E07               	movwf	gpio_pin_read_logic@ret^0,c
  1754                           
  1755                           ;MCAL_layer/GPIO/hal_gpio.c: 119:     }
  1756   001BB4  EF06  F00E         	goto	l4062
  1757   001BB8                     l4060:
  1758                           
  1759                           ;MCAL_layer/GPIO/hal_gpio.c: 121:     {;MCAL_layer/GPIO/hal_gpio.c: 122:        *logic =
      +                           ((*port_registers[_pin_config->port] >> _pin_config->pin) & (uint8)1);
  1760   001BB8  5002               	movf	gpio_pin_read_logic@logic^0,w,c
  1761   001BBA  6ED9               	movwf	fsr2l,c
  1762   001BBC  6ADA               	clrf	fsr2h,c
  1763   001BBE  5001               	movf	gpio_pin_read_logic@_pin_config^0,w,c
  1764   001BC0  6EE1               	movwf	fsr1l,c
  1765   001BC2  6AE2               	clrf	fsr1h,c
  1766   001BC4  30E7               	rrcf	231,w,c
  1767   001BC6  32E8               	rrcf	wreg,f,c
  1768   001BC8  32E8               	rrcf	wreg,f,c
  1769   001BCA  0B07               	andlw	7
  1770   001BCC  6E03               	movwf	??_gpio_pin_read_logic^0,c
  1771   001BCE  5001               	movf	gpio_pin_read_logic@_pin_config^0,w,c
  1772   001BD0  6EE1               	movwf	fsr1l,c
  1773   001BD2  6AE2               	clrf	fsr1h,c
  1774   001BD4  50E7               	movf	231,w,c
  1775   001BD6  0B07               	andlw	7
  1776   001BD8  0D02               	mullw	2
  1777   001BDA  50F3               	movf	243,w,c
  1778   001BDC  0FA0               	addlw	low _port_registers
  1779   001BDE  6EE1               	movwf	fsr1l,c
  1780   001BE0  6AE2               	clrf	fsr1h,c
  1781   001BE2  CFE6 F004          	movff	postinc1,??_gpio_pin_read_logic+1
  1782   001BE6  CFE5 F005          	movff	postdec1,??_gpio_pin_read_logic+2
  1783   001BEA  C004  FFE1         	movff	??_gpio_pin_read_logic+1,fsr1l
  1784   001BEE  C005  FFE2         	movff	??_gpio_pin_read_logic+2,fsr1h
  1785   001BF2  50E7               	movf	indf1,w,c
  1786   001BF4  6E06               	movwf	(??_gpio_pin_read_logic+3)^0,c
  1787   001BF6  2A03               	incf	??_gpio_pin_read_logic^0,f,c
  1788   001BF8  EF00  F00E         	goto	u3554
  1789   001BFC                     u3555:
  1790   001BFC  90D8               	bcf	status,0,c
  1791   001BFE  3206               	rrcf	(??_gpio_pin_read_logic+3)^0,f,c
  1792   001C00                     u3554:
  1793   001C00  2E03               	decfsz	??_gpio_pin_read_logic^0,f,c
  1794   001C02  EFFE  F00D         	goto	u3555
  1795   001C06  5006               	movf	(??_gpio_pin_read_logic+3)^0,w,c
  1796   001C08  0B01               	andlw	1
  1797   001C0A  6EDF               	movwf	indf2,c
  1798   001C0C                     l4062:
  1799                           
  1800                           ;MCAL_layer/GPIO/hal_gpio.c: 124:     return ret;
  1801   001C0C  5007               	movf	gpio_pin_read_logic@ret^0,w,c
  1802   001C0E  0012               	return		;funcret
  1803   001C10                     __end_of_gpio_pin_read_logic:
  1804                           	callstack 0
  1805                           
  1806 ;; *************** function _convert_uint8_to_string *****************
  1807 ;; Defined at:
  1808 ;;		line 403 in file "ECU_layer/LCD/LCD.c"
  1809 ;; Parameters:    Size  Location     Type
  1810 ;;  value           1    wreg     unsigned char 
  1811 ;;  str             1   42[COMRAM] PTR unsigned char 
  1812 ;;		 -> tries_txt(4), 
  1813 ;; Auto vars:     Size  Location     Type
  1814 ;;  value           1   43[COMRAM] unsigned char 
  1815 ;;  ret             1   44[COMRAM] unsigned char 
  1816 ;; Return value:  Size  Location     Type
  1817 ;;                  1    wreg      unsigned char 
  1818 ;; Registers used:
  1819 ;;		wreg, fsr1l, fsr1h, fsr2l, fsr2h, status,2, status,0, tblptrl, tblptrh, tblptru, cstack
  1820 ;; Tracked objects:
  1821 ;;		On entry : 0/0
  1822 ;;		On exit  : 0/0
  1823 ;;		Unchanged: 0/0
  1824 ;; Data sizes:     COMRAM   BANK0   BANK1   BANK2   BANK3   BANK4   BANK5   BANK6   BANK7   BANK8   BANK9  BANK10  BANK1
      +1  BANK12  BANK13  BANK14  BANK15
  1825 ;;      Params:         1       0       0       0       0       0       0       0       0       0       0       0       
      +0       0       0       0       0
  1826 ;;      Locals:         2       0       0       0       0       0       0       0       0       0       0       0       
      +0       0       0       0       0
  1827 ;;      Temps:          0       0       0       0       0       0       0       0       0       0       0       0       
      +0       0       0       0       0
  1828 ;;      Totals:         3       0       0       0       0       0       0       0       0       0       0       0       
      +0       0       0       0       0
  1829 ;;Total ram usage:        3 bytes
  1830 ;; Hardware stack levels used: 1
  1831 ;; Hardware stack levels required when called: 5
  1832 ;; This function calls:
  1833 ;;		_memset
  1834 ;;		_sprintf
  1835 ;; This function is called by:
  1836 ;;		_main
  1837 ;; This function uses a non-reentrant model
  1838 ;;
  1839                           
  1840                           	psect	text8
  1841   002090                     __ptext8:
  1842                           	callstack 0
  1843   002090                     _convert_uint8_to_string:
  1844                           	callstack 25
  1845                           
  1846                           ;incstack = 0
  1847                           ;convert_uint8_to_string@value stored from wreg
  1848   002090  6E2C               	movwf	convert_uint8_to_string@value^0,c
  1849   002092                     
  1850                           ;ECU_layer/LCD/LCD.c: 403: Std_ReturnType convert_uint8_to_string(uint8 value, uint8* st
      +                          r);ECU_layer/LCD/LCD.c: 404: {;ECU_layer/LCD/LCD.c: 405:     Std_ReturnType ret = (Std_R
      +                          eturnType) 0x01;
  1851   002092  0E01               	movlw	1
  1852   002094  6E2D               	movwf	convert_uint8_to_string@ret^0,c
  1853   002096                     
  1854                           ;ECU_layer/LCD/LCD.c: 406:     if(str == ((void*)0))
  1855   002096  502B               	movf	convert_uint8_to_string@str^0,w,c
  1856   002098  A4D8               	btfss	status,2,c
  1857   00209A  EF51  F010         	goto	u2751
  1858   00209E  EF53  F010         	goto	u2750
  1859   0020A2                     u2751:
  1860   0020A2  EF57  F010         	goto	l3422
  1861   0020A6                     u2750:
  1862   0020A6                     
  1863                           ;ECU_layer/LCD/LCD.c: 407:     {;ECU_layer/LCD/LCD.c: 408:         ret = (Std_ReturnType
      +                          ) 0x00;
  1864   0020A6  0E00               	movlw	0
  1865   0020A8  6E2D               	movwf	convert_uint8_to_string@ret^0,c
  1866                           
  1867                           ;ECU_layer/LCD/LCD.c: 409:     }
  1868   0020AA  EF6C  F010         	goto	l3426
  1869   0020AE                     l3422:
  1870                           
  1871                           ;ECU_layer/LCD/LCD.c: 411:     {;ECU_layer/LCD/LCD.c: 412:         memset(str, '\0', 4);
  1872   0020AE  C02B  F001         	movff	convert_uint8_to_string@str,memset@dest
  1873   0020B2  0E00               	movlw	0
  1874   0020B4  6E03               	movwf	(memset@c+1)^0,c
  1875   0020B6  0E00               	movlw	0
  1876   0020B8  6E02               	movwf	memset@c^0,c
  1877   0020BA  0E00               	movlw	0
  1878   0020BC  6E05               	movwf	(memset@n+1)^0,c
  1879   0020BE  0E04               	movlw	4
  1880   0020C0  6E04               	movwf	memset@n^0,c
  1881   0020C2  ECFA  F010         	call	_memset	;wreg free
  1882   0020C6                     
  1883                           ;ECU_layer/LCD/LCD.c: 413:         sprintf(str, "%i", value);
  1884   0020C6  C02B  F01A         	movff	convert_uint8_to_string@str,sprintf@s
  1885   0020CA  0E63               	movlw	low STR_8
  1886   0020CC  6E1B               	movwf	sprintf@fmt^0,c
  1887   0020CE  C02C  F01C         	movff	convert_uint8_to_string@value,?_sprintf+2
  1888   0020D2  6A1D               	clrf	(?_sprintf+3)^0,c
  1889   0020D4  ECC6  F010         	call	_sprintf	;wreg free
  1890   0020D8                     l3426:
  1891                           
  1892                           ;ECU_layer/LCD/LCD.c: 415:     return ret;
  1893   0020D8  502D               	movf	convert_uint8_to_string@ret^0,w,c
  1894   0020DA  0012               	return		;funcret
  1895   0020DC                     __end_of_convert_uint8_to_string:
  1896                           	callstack 0
  1897                           
  1898 ;; *************** function _sprintf *****************
  1899 ;; Defined at:
  1900 ;;		line 9 in file "C:\Program Files\Microchip\xc8\v2.45\pic\sources\c99\common\nf_sprintf.c"
  1901 ;; Parameters:    Size  Location     Type
  1902 ;;  s               1   25[COMRAM] PTR unsigned char 
  1903 ;;		 -> tries_txt(4), 
  1904 ;;  fmt             1   26[COMRAM] PTR const unsigned char 
  1905 ;;		 -> STR_10(3), STR_9(3), STR_8(3), 
  1906 ;; Auto vars:     Size  Location     Type
  1907 ;;  f              12   30[COMRAM] struct _IO_FILE
  1908 ;;  ret             2    0        int 
  1909 ;;  ap              1   29[COMRAM] PTR void [1]
  1910 ;;		 -> ?_sprintf(2), 
  1911 ;; Return value:  Size  Location     Type
  1912 ;;                  2   25[COMRAM] int 
  1913 ;; Registers used:
  1914 ;;		wreg, fsr1l, fsr1h, fsr2l, fsr2h, status,2, status,0, tblptrl, tblptrh, tblptru, cstack
  1915 ;; Tracked objects:
  1916 ;;		On entry : 0/0
  1917 ;;		On exit  : 0/0
  1918 ;;		Unchanged: 0/0
  1919 ;; Data sizes:     COMRAM   BANK0   BANK1   BANK2   BANK3   BANK4   BANK5   BANK6   BANK7   BANK8   BANK9  BANK10  BANK1
      +1  BANK12  BANK13  BANK14  BANK15
  1920 ;;      Params:         4       0       0       0       0       0       0       0       0       0       0       0       
      +0       0       0       0       0
  1921 ;;      Locals:        13       0       0       0       0       0       0       0       0       0       0       0       
      +0       0       0       0       0
  1922 ;;      Temps:          0       0       0       0       0       0       0       0       0       0       0       0       
      +0       0       0       0       0
  1923 ;;      Totals:        17       0       0       0       0       0       0       0       0       0       0       0       
      +0       0       0       0       0
  1924 ;;Total ram usage:       17 bytes
  1925 ;; Hardware stack levels used: 1
  1926 ;; Hardware stack levels required when called: 4
  1927 ;; This function calls:
  1928 ;;		_vfprintf
  1929 ;; This function is called by:
  1930 ;;		_convert_uint8_to_string
  1931 ;;		_convert_uint16_to_string
  1932 ;;		_convert_uint32_to_string
  1933 ;; This function uses a non-reentrant model
  1934 ;;
  1935                           
  1936                           	psect	text9
  1937   00218C                     __ptext9:
  1938                           	callstack 0
  1939   00218C                     _sprintf:
  1940                           	callstack 25
  1941   00218C  0E1C               	movlw	low (?_sprintf+2)
  1942   00218E  6E1E               	movwf	sprintf@ap^0,c
  1943   002190  C01A  F01F         	movff	sprintf@s,sprintf@f
  1944   002194  0E00               	movlw	0
  1945   002196  6E23               	movwf	(sprintf@f+4)^0,c
  1946   002198  0E00               	movlw	0
  1947   00219A  6E22               	movwf	(sprintf@f+3)^0,c
  1948   00219C  0E00               	movlw	0
  1949   00219E  6E2A               	movwf	(sprintf@f+11)^0,c
  1950   0021A0  0E00               	movlw	0
  1951   0021A2  6E29               	movwf	(sprintf@f+10)^0,c
  1952   0021A4  0E1F               	movlw	low sprintf@f
  1953   0021A6  6E16               	movwf	vfprintf@fp^0,c
  1954   0021A8  C01B  F017         	movff	sprintf@fmt,vfprintf@fmt
  1955   0021AC  0E1E               	movlw	low sprintf@ap
  1956   0021AE  6E18               	movwf	vfprintf@ap^0,c
  1957   0021B0  EC6E  F010         	call	_vfprintf	;wreg free
  1958   0021B4  501A               	movf	sprintf@s^0,w,c
  1959   0021B6  2422               	addwf	(sprintf@f+3)^0,w,c
  1960   0021B8  6ED9               	movwf	fsr2l,c
  1961   0021BA  6ADA               	clrf	fsr2h,c
  1962   0021BC  6ADF               	clrf	indf2,c
  1963   0021BE  0012               	return		;funcret
  1964   0021C0                     __end_of_sprintf:
  1965                           	callstack 0
  1966                           
  1967 ;; *************** function _vfprintf *****************
  1968 ;; Defined at:
  1969 ;;		line 1817 in file "C:\Program Files\Microchip\xc8\v2.45\pic\sources\c99\common\doprnt.c"
  1970 ;; Parameters:    Size  Location     Type
  1971 ;;  fp              1   21[COMRAM] PTR struct _IO_FILE
  1972 ;;		 -> sprintf@f(12), 
  1973 ;;  fmt             1   22[COMRAM] PTR const unsigned char 
  1974 ;;		 -> STR_10(3), STR_9(3), STR_8(3), 
  1975 ;;  ap              1   23[COMRAM] PTR PTR void 
  1976 ;;		 -> sprintf@ap(1), 
  1977 ;; Auto vars:     Size  Location     Type
  1978 ;;  cfmt            1   24[COMRAM] PTR unsigned char 
  1979 ;;		 -> STR_10(3), STR_9(3), STR_8(3), 
  1980 ;; Return value:  Size  Location     Type
  1981 ;;                  2   21[COMRAM] int 
  1982 ;; Registers used:
  1983 ;;		wreg, fsr1l, fsr1h, fsr2l, fsr2h, status,2, status,0, tblptrl, tblptrh, tblptru, cstack
  1984 ;; Tracked objects:
  1985 ;;		On entry : 0/0
  1986 ;;		On exit  : 0/0
  1987 ;;		Unchanged: 0/0
  1988 ;; Data sizes:     COMRAM   BANK0   BANK1   BANK2   BANK3   BANK4   BANK5   BANK6   BANK7   BANK8   BANK9  BANK10  BANK1
      +1  BANK12  BANK13  BANK14  BANK15
  1989 ;;      Params:         3       0       0       0       0       0       0       0       0       0       0       0       
      +0       0       0       0       0
  1990 ;;      Locals:         1       0       0       0       0       0       0       0       0       0       0       0       
      +0       0       0       0       0
  1991 ;;      Temps:          0       0       0       0       0       0       0       0       0       0       0       0       
      +0       0       0       0       0
  1992 ;;      Totals:         4       0       0       0       0       0       0       0       0       0       0       0       
      +0       0       0       0       0
  1993 ;;Total ram usage:        4 bytes
  1994 ;; Hardware stack levels used: 1
  1995 ;; Hardware stack levels required when called: 3
  1996 ;; This function calls:
  1997 ;;		_vfpfcnvrt
  1998 ;; This function is called by:
  1999 ;;		_sprintf
  2000 ;; This function uses a non-reentrant model
  2001 ;;
  2002                           
  2003                           	psect	text10
  2004   0020DC                     __ptext10:
  2005                           	callstack 0
  2006   0020DC                     _vfprintf:
  2007                           	callstack 25
  2008   0020DC                     
  2009                           ;C:\Program Files\Microchip\xc8\v2.45\pic\sources\c99\common\doprnt.c: 1817: int vfprint
      +                          f(FILE *fp, const char *fmt, va_list ap);C:\Program Files\Microchip\xc8\v2.45\pic\source
      +                          s\c99\common\doprnt.c: 1818: {;C:\Program Files\Microchip\xc8\v2.45\pic\sources\c99\comm
      +                          on\doprnt.c: 1820:     char *cfmt;;C:\Program Files\Microchip\xc8\v2.45\pic\sources\c99\
      +                          common\doprnt.c: 1822:     cfmt = (char *)fmt;
  2010   0020DC  C017  F019         	movff	vfprintf@fmt,vfprintf@cfmt
  2011                           
  2012                           ;C:\Program Files\Microchip\xc8\v2.45\pic\sources\c99\common\doprnt.c: 1826:     while (
      +                          *cfmt) {
  2013   0020E0  EF7A  F010         	goto	l3188
  2014   0020E4                     l3186:
  2015                           
  2016                           ;C:\Program Files\Microchip\xc8\v2.45\pic\sources\c99\common\doprnt.c: 1830:    vfpfcnvr
      +                          t(fp, &cfmt, ap);
  2017   0020E4  C016  F00B         	movff	vfprintf@fp,vfpfcnvrt@fp
  2018   0020E8  0E19               	movlw	low vfprintf@cfmt
  2019   0020EA  6E0C               	movwf	vfpfcnvrt@fmt^0,c
  2020   0020EC  C018  F00D         	movff	vfprintf@ap,vfpfcnvrt@ap
  2021   0020F0  EC34  F008         	call	_vfpfcnvrt	;wreg free
  2022   0020F4                     l3188:
  2023                           
  2024                           ;C:\Program Files\Microchip\xc8\v2.45\pic\sources\c99\common\doprnt.c: 1826:     while (
      +                          *cfmt) {
  2025   0020F4  C019  FFF6         	movff	vfprintf@cfmt,tblptrl
  2026   0020F8                     	if	1	;There is more than 1 active tblptr byte
  2027   0020F8  0E10               	movlw	high __smallconst
  2028   0020FA  6EF7               	movwf	tblptrh,c
  2029   0020FC                     	endif
  2030   0020FC                     	if	0	;tblptru may be non-zero
  2031   0020FC                     	endif
  2032   0020FC                     	if	0	;tblptru may be non-zero
  2033   0020FC                     	endif
  2034   0020FC  0008               	tblrd		*
  2035   0020FE  50F5               	movf	tablat,w,c
  2036   002100  0900               	iorlw	0
  2037   002102  A4D8               	btfss	status,2,c
  2038   002104  EF86  F010         	goto	u2481
  2039   002108  EF88  F010         	goto	u2480
  2040   00210C                     u2481:
  2041   00210C  EF72  F010         	goto	l3186
  2042   002110                     u2480:
  2043   002110                     
  2044                           ;C:\Program Files\Microchip\xc8\v2.45\pic\sources\c99\common\doprnt.c: 1835:  return 0;
  2045   002110  0E00               	movlw	0
  2046   002112  6E17               	movwf	(?_vfprintf+1)^0,c
  2047   002114  0E00               	movlw	0
  2048   002116  6E16               	movwf	?_vfprintf^0,c
  2049   002118  0012               	return		;funcret
  2050   00211A                     __end_of_vfprintf:
  2051                           	callstack 0
  2052                           
  2053 ;; *************** function _vfpfcnvrt *****************
  2054 ;; Defined at:
  2055 ;;		line 1177 in file "C:\Program Files\Microchip\xc8\v2.45\pic\sources\c99\common\doprnt.c"
  2056 ;; Parameters:    Size  Location     Type
  2057 ;;  fp              1   10[COMRAM] PTR struct _IO_FILE
  2058 ;;		 -> sprintf@f(12), 
  2059 ;;  fmt             1   11[COMRAM] PTR PTR unsigned char 
  2060 ;;		 -> vfprintf@cfmt(1), 
  2061 ;;  ap              1   12[COMRAM] PTR PTR void 
  2062 ;;		 -> sprintf@ap(1), 
  2063 ;; Auto vars:     Size  Location     Type
  2064 ;;  convarg         4   16[COMRAM] struct .
  2065 ;;  c               1   20[COMRAM] unsigned char 
  2066 ;;  cp              1   15[COMRAM] PTR unsigned char 
  2067 ;;		 -> STR_10(3), STR_9(3), STR_8(3), 
  2068 ;;  done            1   14[COMRAM] _Bool 
  2069 ;; Return value:  Size  Location     Type
  2070 ;;                  1    wreg      void 
  2071 ;; Registers used:
  2072 ;;		wreg, fsr1l, fsr1h, fsr2l, fsr2h, status,2, status,0, tblptrl, tblptrh, tblptru, cstack
  2073 ;; Tracked objects:
  2074 ;;		On entry : 0/0
  2075 ;;		On exit  : 0/0
  2076 ;;		Unchanged: 0/0
  2077 ;; Data sizes:     COMRAM   BANK0   BANK1   BANK2   BANK3   BANK4   BANK5   BANK6   BANK7   BANK8   BANK9  BANK10  BANK1
      +1  BANK12  BANK13  BANK14  BANK15
  2078 ;;      Params:         3       0       0       0       0       0       0       0       0       0       0       0       
      +0       0       0       0       0
  2079 ;;      Locals:         7       0       0       0       0       0       0       0       0       0       0       0       
      +0       0       0       0       0
  2080 ;;      Temps:          1       0       0       0       0       0       0       0       0       0       0       0       
      +0       0       0       0       0
  2081 ;;      Totals:        11       0       0       0       0       0       0       0       0       0       0       0       
      +0       0       0       0       0
  2082 ;;Total ram usage:       11 bytes
  2083 ;; Hardware stack levels used: 1
  2084 ;; Hardware stack levels required when called: 2
  2085 ;; This function calls:
  2086 ;;		___awdiv
  2087 ;;		___awmod
  2088 ;;		_abs
  2089 ;;		_fputc
  2090 ;; This function is called by:
  2091 ;;		_vfprintf
  2092 ;; This function uses a non-reentrant model
  2093 ;;
  2094                           
  2095                           	psect	text11
  2096   001068                     __ptext11:
  2097                           	callstack 0
  2098   001068                     _vfpfcnvrt:
  2099                           	callstack 25
  2100   001068                     
  2101                           ;C:\Program Files\Microchip\xc8\v2.45\pic\sources\c99\common\doprnt.c: 1177: vfpfcnvrt(F
      +                          ILE *fp, char *fmt[], va_list ap);C:\Program Files\Microchip\xc8\v2.45\pic\sources\c99\c
      +                          ommon\doprnt.c: 1178: {;C:\Program Files\Microchip\xc8\v2.45\pic\sources\c99\common\dopr
      +                          nt.c: 1179:     char c, *cp;;C:\Program Files\Microchip\xc8\v2.45\pic\sources\c99\common
      +                          \doprnt.c: 1180:     _Bool done;;C:\Program Files\Microchip\xc8\v2.45\pic\sources\c99\co
      +                          mmon\doprnt.c: 1188:  } convarg;;C:\Program Files\Microchip\xc8\v2.45\pic\sources\c99\co
      +                          mmon\doprnt.c: 1201:     if ((*fmt)[0] == '%') {
  2102   001068  500C               	movf	vfpfcnvrt@fmt^0,w,c
  2103   00106A  6ED9               	movwf	fsr2l,c
  2104   00106C  6ADA               	clrf	fsr2h,c
  2105   00106E  CFDF FFF6          	movff	indf2,tblptrl
  2106   001072                     	if	1	;There is more than 1 active tblptr byte
  2107   001072  0E10               	movlw	high __smallconst
  2108   001074  6EF7               	movwf	tblptrh,c
  2109   001076                     	endif
  2110   001076                     	if	0	;tblptru may be non-zero
  2111   001076                     	endif
  2112   001076                     	if	0	;tblptru may be non-zero
  2113   001076                     	endif
  2114   001076  0008               	tblrd		*
  2115   001078  50F5               	movf	tablat,w,c
  2116   00107A  0A25               	xorlw	37
  2117   00107C  A4D8               	btfss	status,2,c
  2118   00107E  EF43  F008         	goto	u2271
  2119   001082  EF45  F008         	goto	u2270
  2120   001086                     u2271:
  2121   001086  EFFE  F008         	goto	l3074
  2122   00108A                     u2270:
  2123   00108A                     
  2124                           ;C:\Program Files\Microchip\xc8\v2.45\pic\sources\c99\common\doprnt.c: 1202:         ++*
      +                          fmt;
  2125   00108A  500C               	movf	vfpfcnvrt@fmt^0,w,c
  2126   00108C  6ED9               	movwf	fsr2l,c
  2127   00108E  6ADA               	clrf	fsr2h,c
  2128   001090  2ADF               	incf	indf2,f,c
  2129   001092                     
  2130                           ;C:\Program Files\Microchip\xc8\v2.45\pic\sources\c99\common\doprnt.c: 1204:         fla
      +                          gs = width = 0;
  2131   001092  0E00               	movlw	0
  2132   001094  6E32               	movwf	(_width+1)^0,c
  2133   001096  0E00               	movlw	0
  2134   001098  6E31               	movwf	_width^0,c
  2135   00109A  C031  F035         	movff	_width,_flags
  2136   00109E                     
  2137                           ;C:\Program Files\Microchip\xc8\v2.45\pic\sources\c99\common\doprnt.c: 1205:         pre
      +                          c = -1;
  2138   00109E  6833               	setf	_prec^0,c
  2139   0010A0  6834               	setf	(_prec+1)^0,c
  2140   0010A2                     
  2141                           ;C:\Program Files\Microchip\xc8\v2.45\pic\sources\c99\common\doprnt.c: 1291:   cp = *fmt
      +                          ;
  2142   0010A2  500C               	movf	vfpfcnvrt@fmt^0,w,c
  2143   0010A4  6ED9               	movwf	fsr2l,c
  2144   0010A6  6ADA               	clrf	fsr2h,c
  2145   0010A8  50DF               	movf	indf2,w,c
  2146   0010AA  6E10               	movwf	vfpfcnvrt@cp^0,c
  2147   0010AC                     
  2148                           ;C:\Program Files\Microchip\xc8\v2.45\pic\sources\c99\common\doprnt.c: 1361:   if (*cp =
      +                          = 'd' || *cp == 'i') {
  2149   0010AC  C010  FFF6         	movff	vfpfcnvrt@cp,tblptrl
  2150   0010B0                     	if	1	;There is more than 1 active tblptr byte
  2151   0010B0  0E10               	movlw	high __smallconst
  2152   0010B2  6EF7               	movwf	tblptrh,c
  2153   0010B4                     	endif
  2154   0010B4                     	if	0	;tblptru may be non-zero
  2155   0010B4                     	endif
  2156   0010B4                     	if	0	;tblptru may be non-zero
  2157   0010B4                     	endif
  2158   0010B4  0008               	tblrd		*
  2159   0010B6  50F5               	movf	tablat,w,c
  2160   0010B8  0A64               	xorlw	100
  2161   0010BA  B4D8               	btfsc	status,2,c
  2162   0010BC  EF62  F008         	goto	u2281
  2163   0010C0  EF64  F008         	goto	u2280
  2164   0010C4                     u2281:
  2165   0010C4  EF72  F008         	goto	l3044
  2166   0010C8                     u2280:
  2167   0010C8  C010  FFF6         	movff	vfpfcnvrt@cp,tblptrl
  2168   0010CC                     	if	1	;There is more than 1 active tblptr byte
  2169   0010CC  0E10               	movlw	high __smallconst
  2170   0010CE  6EF7               	movwf	tblptrh,c
  2171   0010D0                     	endif
  2172   0010D0                     	if	0	;tblptru may be non-zero
  2173   0010D0                     	endif
  2174   0010D0                     	if	0	;tblptru may be non-zero
  2175   0010D0                     	endif
  2176   0010D0  0008               	tblrd		*
  2177   0010D2  50F5               	movf	tablat,w,c
  2178   0010D4  0A69               	xorlw	105
  2179   0010D6  A4D8               	btfss	status,2,c
  2180   0010D8  EF70  F008         	goto	u2291
  2181   0010DC  EF72  F008         	goto	u2290
  2182   0010E0                     u2291:
  2183   0010E0  EFF8  F008         	goto	l3070
  2184   0010E4                     u2290:
  2185   0010E4                     l3044:
  2186                           
  2187                           ;C:\Program Files\Microchip\xc8\v2.45\pic\sources\c99\common\doprnt.c: 1404:    convarg.
      +                          sint = (vfpf_sint_t)(int)(*(int *)__va_arg(*(int **)ap, (int)0));
  2188   0010E4  500D               	movf	vfpfcnvrt@ap^0,w,c
  2189   0010E6  6ED9               	movwf	fsr2l,c
  2190   0010E8  6ADA               	clrf	fsr2h,c
  2191   0010EA  0E02               	movlw	2
  2192   0010EC  26DF               	addwf	indf2,f,c
  2193   0010EE  5CDF               	subwf	indf2,w,c
  2194   0010F0  6ED9               	movwf	fsr2l,c
  2195   0010F2  6ADA               	clrf	fsr2h,c
  2196   0010F4  CFDE F011          	movff	postinc2,vfpfcnvrt@convarg
  2197   0010F8  CFDE F012          	movff	postinc2,vfpfcnvrt@convarg+1
  2198   0010FC                     
  2199                           ;C:\Program Files\Microchip\xc8\v2.45\pic\sources\c99\common\doprnt.c: 1406:    *fmt = c
      +                          p+1;
  2200   0010FC  500C               	movf	vfpfcnvrt@fmt^0,w,c
  2201   0010FE  6ED9               	movwf	fsr2l,c
  2202   001100  6ADA               	clrf	fsr2h,c
  2203   001102  2810               	incf	vfpfcnvrt@cp^0,w,c
  2204   001104  6EDF               	movwf	indf2,c
  2205   001106                     
  2206                           ;C:\Program Files\Microchip\xc8\v2.45\pic\sources\c99\common\doprnt.c: 1408:    c = size
      +                          of(dbuf);
  2207   001106  0E20               	movlw	32
  2208   001108  6E15               	movwf	vfpfcnvrt@c^0,c
  2209                           
  2210                           ;C:\Program Files\Microchip\xc8\v2.45\pic\sources\c99\common\doprnt.c: 1409:    done = c
      +                          onvarg.sint < 0;
  2211   00110A  BE12               	btfsc	(vfpfcnvrt@convarg+1)^0,7,c
  2212   00110C  EF8A  F008         	goto	u2301
  2213   001110  EF8D  F008         	goto	u2300
  2214   001114                     u2301:
  2215   001114  0E01               	movlw	1
  2216   001116  EF8E  F008         	goto	u2310
  2217   00111A                     u2300:
  2218   00111A  0E00               	movlw	0
  2219   00111C                     u2310:
  2220   00111C  6E0F               	movwf	vfpfcnvrt@done^0,c
  2221   00111E                     l3050:
  2222                           
  2223                           ;C:\Program Files\Microchip\xc8\v2.45\pic\sources\c99\common\doprnt.c: 1411:     dbuf[--
      +                          c] = abs(convarg.sint % 10) + '0';
  2224   00111E  0615               	decf	vfpfcnvrt@c^0,f,c
  2225   001120  5015               	movf	vfpfcnvrt@c^0,w,c
  2226   001122  0F80               	addlw	low _dbuf
  2227   001124  6ED9               	movwf	fsr2l,c
  2228   001126  6ADA               	clrf	fsr2h,c
  2229   001128  C011  F001         	movff	vfpfcnvrt@convarg,___awmod@dividend
  2230   00112C  C012  F002         	movff	vfpfcnvrt@convarg+1,___awmod@dividend+1
  2231   001130  0E00               	movlw	0
  2232   001132  6E04               	movwf	(___awmod@divisor+1)^0,c
  2233   001134  0E0A               	movlw	10
  2234   001136  6E03               	movwf	___awmod@divisor^0,c
  2235   001138  EC09  F00D         	call	___awmod	;wreg free
  2236   00113C  C001  F007         	movff	?___awmod,abs@a
  2237   001140  C002  F008         	movff	?___awmod+1,abs@a+1
  2238   001144  ECE0  F010         	call	_abs	;wreg free
  2239   001148  5007               	movf	?_abs^0,w,c
  2240   00114A  0F30               	addlw	48
  2241   00114C  6EDF               	movwf	indf2,c
  2242   00114E                     
  2243                           ;C:\Program Files\Microchip\xc8\v2.45\pic\sources\c99\common\doprnt.c: 1412:     convarg
      +                          .sint /= 10;
  2244   00114E  C011  F001         	movff	vfpfcnvrt@convarg,___awdiv@dividend
  2245   001152  C012  F002         	movff	vfpfcnvrt@convarg+1,___awdiv@dividend+1
  2246   001156  0E00               	movlw	0
  2247   001158  6E04               	movwf	(___awdiv@divisor+1)^0,c
  2248   00115A  0E0A               	movlw	10
  2249   00115C  6E03               	movwf	___awdiv@divisor^0,c
  2250   00115E  EC49  F00C         	call	___awdiv	;wreg free
  2251   001162  C001  F011         	movff	?___awdiv,vfpfcnvrt@convarg
  2252   001166  C002  F012         	movff	?___awdiv+1,vfpfcnvrt@convarg+1
  2253   00116A                     
  2254                           ;C:\Program Files\Microchip\xc8\v2.45\pic\sources\c99\common\doprnt.c: 1416:    } while 
      +                          (convarg.sint != 0 && c != 0);
  2255   00116A  5011               	movf	vfpfcnvrt@convarg^0,w,c
  2256   00116C  1012               	iorwf	(vfpfcnvrt@convarg+1)^0,w,c
  2257   00116E  B4D8               	btfsc	status,2,c
  2258   001170  EFBC  F008         	goto	u2321
  2259   001174  EFBE  F008         	goto	u2320
  2260   001178                     u2321:
  2261   001178  EFC6  F008         	goto	l3058
  2262   00117C                     u2320:
  2263   00117C  5015               	movf	vfpfcnvrt@c^0,w,c
  2264   00117E  A4D8               	btfss	status,2,c
  2265   001180  EFC4  F008         	goto	u2331
  2266   001184  EFC6  F008         	goto	u2330
  2267   001188                     u2331:
  2268   001188  EF8F  F008         	goto	l3050
  2269   00118C                     u2330:
  2270   00118C                     l3058:
  2271                           
  2272                           ;C:\Program Files\Microchip\xc8\v2.45\pic\sources\c99\common\doprnt.c: 1417:    if (c !=
      +                           0 && done) {
  2273   00118C  5015               	movf	vfpfcnvrt@c^0,w,c
  2274   00118E  B4D8               	btfsc	status,2,c
  2275   001190  EFCC  F008         	goto	u2341
  2276   001194  EFCE  F008         	goto	u2340
  2277   001198                     u2341:
  2278   001198  EFED  F008         	goto	l3068
  2279   00119C                     u2340:
  2280   00119C  500F               	movf	vfpfcnvrt@done^0,w,c
  2281   00119E  B4D8               	btfsc	status,2,c
  2282   0011A0  EFD4  F008         	goto	u2351
  2283   0011A4  EFD6  F008         	goto	u2350
  2284   0011A8                     u2351:
  2285   0011A8  EFED  F008         	goto	l3068
  2286   0011AC                     u2350:
  2287   0011AC                     
  2288                           ;C:\Program Files\Microchip\xc8\v2.45\pic\sources\c99\common\doprnt.c: 1418:     dbuf[--
      +                          c] = '-';
  2289   0011AC  0615               	decf	vfpfcnvrt@c^0,f,c
  2290   0011AE  5015               	movf	vfpfcnvrt@c^0,w,c
  2291   0011B0  0F80               	addlw	low _dbuf
  2292   0011B2  6ED9               	movwf	fsr2l,c
  2293   0011B4  6ADA               	clrf	fsr2h,c
  2294   0011B6  0E2D               	movlw	45
  2295   0011B8  6EDF               	movwf	indf2,c
  2296   0011BA  EFED  F008         	goto	l3068
  2297   0011BE                     l3064:
  2298                           
  2299                           ;C:\Program Files\Microchip\xc8\v2.45\pic\sources\c99\common\doprnt.c: 1424:     fputc(d
      +                          buf[c++], fp);
  2300   0011BE  5015               	movf	vfpfcnvrt@c^0,w,c
  2301   0011C0  0F80               	addlw	low _dbuf
  2302   0011C2  6ED9               	movwf	fsr2l,c
  2303   0011C4  6ADA               	clrf	fsr2h,c
  2304   0011C6  50DF               	movf	indf2,w,c
  2305   0011C8  6E0E               	movwf	??_vfpfcnvrt^0,c
  2306   0011CA  500E               	movf	??_vfpfcnvrt^0,w,c
  2307   0011CC  6E01               	movwf	fputc@c^0,c
  2308   0011CE  6A02               	clrf	(fputc@c+1)^0,c
  2309   0011D0  C00B  F003         	movff	vfpfcnvrt@fp,fputc@fp
  2310   0011D4  EC61  F00D         	call	_fputc	;wreg free
  2311   0011D8  2A15               	incf	vfpfcnvrt@c^0,f,c
  2312   0011DA                     l3068:
  2313                           
  2314                           ;C:\Program Files\Microchip\xc8\v2.45\pic\sources\c99\common\doprnt.c: 1423:    while (c
      +                           != sizeof(dbuf)) {
  2315   0011DA  0E20               	movlw	32
  2316   0011DC  1815               	xorwf	vfpfcnvrt@c^0,w,c
  2317   0011DE  A4D8               	btfss	status,2,c
  2318   0011E0  EFF4  F008         	goto	u2361
  2319   0011E4  EFF6  F008         	goto	u2360
  2320   0011E8                     u2361:
  2321   0011E8  EFDF  F008         	goto	l3064
  2322   0011EC                     u2360:
  2323   0011EC  EF0F  F009         	goto	l1314
  2324   0011F0                     l3070:
  2325                           
  2326                           ;C:\Program Files\Microchip\xc8\v2.45\pic\sources\c99\common\doprnt.c: 1806:         ++*
      +                          fmt;
  2327   0011F0  500C               	movf	vfpfcnvrt@fmt^0,w,c
  2328   0011F2  6ED9               	movwf	fsr2l,c
  2329   0011F4  6ADA               	clrf	fsr2h,c
  2330   0011F6  2ADF               	incf	indf2,f,c
  2331   0011F8  EF0F  F009         	goto	l1314
  2332   0011FC                     l3074:
  2333                           
  2334                           ;C:\Program Files\Microchip\xc8\v2.45\pic\sources\c99\common\doprnt.c: 1811:     fputc((
      +                          int)(*fmt)[0], fp);
  2335   0011FC  500C               	movf	vfpfcnvrt@fmt^0,w,c
  2336   0011FE  6ED9               	movwf	fsr2l,c
  2337   001200  6ADA               	clrf	fsr2h,c
  2338   001202  CFDF FFF6          	movff	indf2,tblptrl
  2339   001206                     	if	1	;There is more than 1 active tblptr byte
  2340   001206  0E10               	movlw	high __smallconst
  2341   001208  6EF7               	movwf	tblptrh,c
  2342   00120A                     	endif
  2343   00120A                     	if	0	;tblptru may be non-zero
  2344   00120A                     	endif
  2345   00120A                     	if	0	;tblptru may be non-zero
  2346   00120A                     	endif
  2347   00120A  0008               	tblrd		*
  2348   00120C  50F5               	movf	tablat,w,c
  2349   00120E  6E01               	movwf	fputc@c^0,c
  2350   001210  6A02               	clrf	(fputc@c+1)^0,c
  2351   001212  C00B  F003         	movff	vfpfcnvrt@fp,fputc@fp
  2352   001216  EC61  F00D         	call	_fputc	;wreg free
  2353   00121A  EFF8  F008         	goto	l3070
  2354   00121E                     l1314:
  2355   00121E  0012               	return		;funcret
  2356   001220                     __end_of_vfpfcnvrt:
  2357                           	callstack 0
  2358                           
  2359 ;; *************** function _fputc *****************
  2360 ;; Defined at:
  2361 ;;		line 8 in file "C:\Program Files\Microchip\xc8\v2.45\pic\sources\c99\common\nf_fputc.c"
  2362 ;; Parameters:    Size  Location     Type
  2363 ;;  c               2    0[COMRAM] int 
  2364 ;;  fp              1    2[COMRAM] PTR struct _IO_FILE
  2365 ;;		 -> sprintf@f(12), 
  2366 ;; Auto vars:     Size  Location     Type
  2367 ;;		None
  2368 ;; Return value:  Size  Location     Type
  2369 ;;                  2    0[COMRAM] int 
  2370 ;; Registers used:
  2371 ;;		wreg, fsr1l, fsr1h, fsr2l, fsr2h, status,2, status,0, cstack
  2372 ;; Tracked objects:
  2373 ;;		On entry : 0/0
  2374 ;;		On exit  : 0/0
  2375 ;;		Unchanged: 0/0
  2376 ;; Data sizes:     COMRAM   BANK0   BANK1   BANK2   BANK3   BANK4   BANK5   BANK6   BANK7   BANK8   BANK9  BANK10  BANK1
      +1  BANK12  BANK13  BANK14  BANK15
  2377 ;;      Params:         3       0       0       0       0       0       0       0       0       0       0       0       
      +0       0       0       0       0
  2378 ;;      Locals:         0       0       0       0       0       0       0       0       0       0       0       0       
      +0       0       0       0       0
  2379 ;;      Temps:          5       0       0       0       0       0       0       0       0       0       0       0       
      +0       0       0       0       0
  2380 ;;      Totals:         8       0       0       0       0       0       0       0       0       0       0       0       
      +0       0       0       0       0
  2381 ;;Total ram usage:        8 bytes
  2382 ;; Hardware stack levels used: 1
  2383 ;; Hardware stack levels required when called: 1
  2384 ;; This function calls:
  2385 ;;		_putch
  2386 ;; This function is called by:
  2387 ;;		_vfpfcnvrt
  2388 ;; This function uses a non-reentrant model
  2389 ;;
  2390                           
  2391                           	psect	text12
  2392   001AC2                     __ptext12:
  2393                           	callstack 0
  2394   001AC2                     _fputc:
  2395                           	callstack 25
  2396   001AC2  5003               	movf	fputc@fp^0,w,c
  2397   001AC4  B4D8               	btfsc	status,2,c
  2398   001AC6  EF67  F00D         	goto	u2111
  2399   001ACA  EF69  F00D         	goto	u2110
  2400   001ACE                     u2111:
  2401   001ACE  EF71  F00D         	goto	l2942
  2402   001AD2                     u2110:
  2403   001AD2  5003               	movf	fputc@fp^0,w,c
  2404   001AD4  A4D8               	btfss	status,2,c
  2405   001AD6  EF6F  F00D         	goto	u2121
  2406   001ADA  EF71  F00D         	goto	u2120
  2407   001ADE                     u2121:
  2408   001ADE  EF76  F00D         	goto	l2944
  2409   001AE2                     u2120:
  2410   001AE2                     l2942:
  2411   001AE2  5001               	movf	fputc@c^0,w,c
  2412   001AE4  EC40  F011         	call	_putch
  2413   001AE8  EFB5  F00D         	goto	l1339
  2414   001AEC                     l2944:
  2415   001AEC  5003               	movf	fputc@fp^0,w,c
  2416   001AEE  6ED9               	movwf	fsr2l,c
  2417   001AF0  6ADA               	clrf	fsr2h,c
  2418   001AF2  0E0A               	movlw	10
  2419   001AF4  26D9               	addwf	fsr2l,f,c
  2420   001AF6  50DE               	movf	postinc2,w,c
  2421   001AF8  10DE               	iorwf	postinc2,w,c
  2422   001AFA  B4D8               	btfsc	status,2,c
  2423   001AFC  EF82  F00D         	goto	u2131
  2424   001B00  EF84  F00D         	goto	u2130
  2425   001B04                     u2131:
  2426   001B04  EF9D  F00D         	goto	l2948
  2427   001B08                     u2130:
  2428   001B08  5003               	movf	fputc@fp^0,w,c
  2429   001B0A  6ED9               	movwf	fsr2l,c
  2430   001B0C  6ADA               	clrf	fsr2h,c
  2431   001B0E  0E0A               	movlw	10
  2432   001B10  26D9               	addwf	fsr2l,f,c
  2433   001B12  5003               	movf	fputc@fp^0,w,c
  2434   001B14  6EE1               	movwf	fsr1l,c
  2435   001B16  6AE2               	clrf	fsr1h,c
  2436   001B18  0E03               	movlw	3
  2437   001B1A  26E1               	addwf	fsr1l,f,c
  2438   001B1C  50DE               	movf	postinc2,w,c
  2439   001B1E  5CE6               	subwf	postinc1,w,c
  2440   001B20  50E6               	movf	postinc1,w,c
  2441   001B22  0A80               	xorlw	128
  2442   001B24  6E08               	movwf	(??_fputc+4)^0,c
  2443   001B26  50DE               	movf	postinc2,w,c
  2444   001B28  0A80               	xorlw	128
  2445   001B2A  5808               	subwfb	(??_fputc+4)^0,w,c
  2446   001B2C  B0D8               	btfsc	status,0,c
  2447   001B2E  EF9B  F00D         	goto	u2141
  2448   001B32  EF9D  F00D         	goto	u2140
  2449   001B36                     u2141:
  2450   001B36  EFB5  F00D         	goto	l1339
  2451   001B3A                     u2140:
  2452   001B3A                     l2948:
  2453   001B3A  5003               	movf	fputc@fp^0,w,c
  2454   001B3C  6ED9               	movwf	fsr2l,c
  2455   001B3E  6ADA               	clrf	fsr2h,c
  2456   001B40  0E03               	movlw	3
  2457   001B42  26D9               	addwf	fsr2l,f,c
  2458   001B44  50DF               	movf	indf2,w,c
  2459   001B46  6E04               	movwf	??_fputc^0,c
  2460   001B48  5003               	movf	fputc@fp^0,w,c
  2461   001B4A  6ED9               	movwf	fsr2l,c
  2462   001B4C  6ADA               	clrf	fsr2h,c
  2463   001B4E  50DF               	movf	indf2,w,c
  2464   001B50  2404               	addwf	??_fputc^0,w,c
  2465   001B52  6ED9               	movwf	fsr2l,c
  2466   001B54  6ADA               	clrf	fsr2h,c
  2467   001B56  C001  FFDF         	movff	fputc@c,indf2
  2468   001B5A  5003               	movf	fputc@fp^0,w,c
  2469   001B5C  6ED9               	movwf	fsr2l,c
  2470   001B5E  6ADA               	clrf	fsr2h,c
  2471   001B60  0E03               	movlw	3
  2472   001B62  26D9               	addwf	fsr2l,f,c
  2473   001B64  2ADE               	incf	postinc2,f,c
  2474   001B66  0E00               	movlw	0
  2475   001B68  22DD               	addwfc	postdec2,f,c
  2476   001B6A                     l1339:
  2477   001B6A  0012               	return		;funcret
  2478   001B6C                     __end_of_fputc:
  2479                           	callstack 0
  2480                           
  2481 ;; *************** function _putch *****************
  2482 ;; Defined at:
  2483 ;;		line 7 in file "C:\Program Files\Microchip\xc8\v2.45\pic\sources\c99\common\putch.c"
  2484 ;; Parameters:    Size  Location     Type
  2485 ;;  c               1    wreg     unsigned char 
  2486 ;; Auto vars:     Size  Location     Type
  2487 ;;  c               1    0[COMRAM] unsigned char 
  2488 ;; Return value:  Size  Location     Type
  2489 ;;                  1    wreg      void 
  2490 ;; Registers used:
  2491 ;;		wreg
  2492 ;; Tracked objects:
  2493 ;;		On entry : 0/0
  2494 ;;		On exit  : 0/0
  2495 ;;		Unchanged: 0/0
  2496 ;; Data sizes:     COMRAM   BANK0   BANK1   BANK2   BANK3   BANK4   BANK5   BANK6   BANK7   BANK8   BANK9  BANK10  BANK1
      +1  BANK12  BANK13  BANK14  BANK15
  2497 ;;      Params:         0       0       0       0       0       0       0       0       0       0       0       0       
      +0       0       0       0       0
  2498 ;;      Locals:         0       0       0       0       0       0       0       0       0       0       0       0       
      +0       0       0       0       0
  2499 ;;      Temps:          0       0       0       0       0       0       0       0       0       0       0       0       
      +0       0       0       0       0
  2500 ;;      Totals:         0       0       0       0       0       0       0       0       0       0       0       0       
      +0       0       0       0       0
  2501 ;;Total ram usage:        0 bytes
  2502 ;; Hardware stack levels used: 1
  2503 ;; This function calls:
  2504 ;;		Nothing
  2505 ;; This function is called by:
  2506 ;;		_fputc
  2507 ;; This function uses a non-reentrant model
  2508 ;;
  2509                           
  2510                           	psect	text13
  2511   002280                     __ptext13:
  2512                           	callstack 0
  2513   002280                     _putch:
  2514                           	callstack 25
  2515   002280  0012               	return		;funcret
  2516   002282                     __end_of_putch:
  2517                           	callstack 0
  2518                           
  2519 ;; *************** function _abs *****************
  2520 ;; Defined at:
  2521 ;;		line 1 in file "C:\Program Files\Microchip\xc8\v2.45\pic\sources\c99\common\abs.c"
  2522 ;; Parameters:    Size  Location     Type
  2523 ;;  a               2    6[COMRAM] int 
  2524 ;; Auto vars:     Size  Location     Type
  2525 ;;		None
  2526 ;; Return value:  Size  Location     Type
  2527 ;;                  2    6[COMRAM] int 
  2528 ;; Registers used:
  2529 ;;		wreg, status,2, status,0
  2530 ;; Tracked objects:
  2531 ;;		On entry : 0/0
  2532 ;;		On exit  : 0/0
  2533 ;;		Unchanged: 0/0
  2534 ;; Data sizes:     COMRAM   BANK0   BANK1   BANK2   BANK3   BANK4   BANK5   BANK6   BANK7   BANK8   BANK9  BANK10  BANK1
      +1  BANK12  BANK13  BANK14  BANK15
  2535 ;;      Params:         2       0       0       0       0       0       0       0       0       0       0       0       
      +0       0       0       0       0
  2536 ;;      Locals:         0       0       0       0       0       0       0       0       0       0       0       0       
      +0       0       0       0       0
  2537 ;;      Temps:          2       0       0       0       0       0       0       0       0       0       0       0       
      +0       0       0       0       0
  2538 ;;      Totals:         4       0       0       0       0       0       0       0       0       0       0       0       
      +0       0       0       0       0
  2539 ;;Total ram usage:        4 bytes
  2540 ;; Hardware stack levels used: 1
  2541 ;; This function calls:
  2542 ;;		Nothing
  2543 ;; This function is called by:
  2544 ;;		_vfpfcnvrt
  2545 ;; This function uses a non-reentrant model
  2546 ;;
  2547                           
  2548                           	psect	text14
  2549   0021C0                     __ptext14:
  2550                           	callstack 0
  2551   0021C0                     _abs:
  2552                           	callstack 26
  2553   0021C0  BE08               	btfsc	(abs@a+1)^0,7,c
  2554   0021C2  EFE5  F010         	goto	u2151
  2555   0021C6  EFE7  F010         	goto	u2150
  2556   0021CA                     u2151:
  2557   0021CA  EFED  F010         	goto	l1324
  2558   0021CE                     u2150:
  2559   0021CE  C007  F007         	movff	abs@a,?_abs
  2560   0021D2  C008  F008         	movff	abs@a+1,?_abs+1
  2561   0021D6  EFF9  F010         	goto	l1327
  2562   0021DA                     l1324:
  2563   0021DA  C007  F009         	movff	abs@a,??_abs
  2564   0021DE  C008  F00A         	movff	abs@a+1,??_abs+1
  2565   0021E2  1E09               	comf	??_abs^0,f,c
  2566   0021E4  1E0A               	comf	(??_abs+1)^0,f,c
  2567   0021E6  4A09               	infsnz	??_abs^0,f,c
  2568   0021E8  2A0A               	incf	(??_abs+1)^0,f,c
  2569   0021EA  C009  F007         	movff	??_abs,?_abs
  2570   0021EE  C00A  F008         	movff	??_abs+1,?_abs+1
  2571   0021F2                     l1327:
  2572   0021F2  0012               	return		;funcret
  2573   0021F4                     __end_of_abs:
  2574                           	callstack 0
  2575                           
  2576 ;; *************** function ___awmod *****************
  2577 ;; Defined at:
  2578 ;;		line 7 in file "C:\Program Files\Microchip\xc8\v2.45\pic\sources\c99\common\awmod.c"
  2579 ;; Parameters:    Size  Location     Type
  2580 ;;  dividend        2    0[COMRAM] int 
  2581 ;;  divisor         2    2[COMRAM] int 
  2582 ;; Auto vars:     Size  Location     Type
  2583 ;;  sign            1    5[COMRAM] unsigned char 
  2584 ;;  counter         1    4[COMRAM] unsigned char 
  2585 ;; Return value:  Size  Location     Type
  2586 ;;                  2    0[COMRAM] int 
  2587 ;; Registers used:
  2588 ;;		wreg, status,2, status,0
  2589 ;; Tracked objects:
  2590 ;;		On entry : 0/0
  2591 ;;		On exit  : 0/0
  2592 ;;		Unchanged: 0/0
  2593 ;; Data sizes:     COMRAM   BANK0   BANK1   BANK2   BANK3   BANK4   BANK5   BANK6   BANK7   BANK8   BANK9  BANK10  BANK1
      +1  BANK12  BANK13  BANK14  BANK15
  2594 ;;      Params:         4       0       0       0       0       0       0       0       0       0       0       0       
      +0       0       0       0       0
  2595 ;;      Locals:         2       0       0       0       0       0       0       0       0       0       0       0       
      +0       0       0       0       0
  2596 ;;      Temps:          0       0       0       0       0       0       0       0       0       0       0       0       
      +0       0       0       0       0
  2597 ;;      Totals:         6       0       0       0       0       0       0       0       0       0       0       0       
      +0       0       0       0       0
  2598 ;;Total ram usage:        6 bytes
  2599 ;; Hardware stack levels used: 1
  2600 ;; This function calls:
  2601 ;;		Nothing
  2602 ;; This function is called by:
  2603 ;;		_vfpfcnvrt
  2604 ;; This function uses a non-reentrant model
  2605 ;;
  2606                           
  2607                           	psect	text15
  2608   001A12                     __ptext15:
  2609                           	callstack 0
  2610   001A12                     ___awmod:
  2611                           	callstack 26
  2612   001A12  0E00               	movlw	0
  2613   001A14  6E06               	movwf	___awmod@sign^0,c
  2614   001A16  BE02               	btfsc	(___awmod@dividend+1)^0,7,c
  2615   001A18  EF12  F00D         	goto	u2050
  2616   001A1C  EF10  F00D         	goto	u2051
  2617   001A20                     u2051:
  2618   001A20  EF18  F00D         	goto	l2910
  2619   001A24                     u2050:
  2620   001A24  6C01               	negf	___awmod@dividend^0,c
  2621   001A26  1E02               	comf	(___awmod@dividend+1)^0,f,c
  2622   001A28  B0D8               	btfsc	status,0,c
  2623   001A2A  2A02               	incf	(___awmod@dividend+1)^0,f,c
  2624   001A2C  0E01               	movlw	1
  2625   001A2E  6E06               	movwf	___awmod@sign^0,c
  2626   001A30                     l2910:
  2627   001A30  BE04               	btfsc	(___awmod@divisor+1)^0,7,c
  2628   001A32  EF1F  F00D         	goto	u2060
  2629   001A36  EF1D  F00D         	goto	u2061
  2630   001A3A                     u2061:
  2631   001A3A  EF23  F00D         	goto	l2914
  2632   001A3E                     u2060:
  2633   001A3E  6C03               	negf	___awmod@divisor^0,c
  2634   001A40  1E04               	comf	(___awmod@divisor+1)^0,f,c
  2635   001A42  B0D8               	btfsc	status,0,c
  2636   001A44  2A04               	incf	(___awmod@divisor+1)^0,f,c
  2637   001A46                     l2914:
  2638   001A46  5003               	movf	___awmod@divisor^0,w,c
  2639   001A48  1004               	iorwf	(___awmod@divisor+1)^0,w,c
  2640   001A4A  B4D8               	btfsc	status,2,c
  2641   001A4C  EF2A  F00D         	goto	u2071
  2642   001A50  EF2C  F00D         	goto	u2070
  2643   001A54                     u2071:
  2644   001A54  EF50  F00D         	goto	l2930
  2645   001A58                     u2070:
  2646   001A58  0E01               	movlw	1
  2647   001A5A  6E05               	movwf	___awmod@counter^0,c
  2648   001A5C  EF34  F00D         	goto	l2920
  2649   001A60                     l2918:
  2650   001A60  90D8               	bcf	status,0,c
  2651   001A62  3603               	rlcf	___awmod@divisor^0,f,c
  2652   001A64  3604               	rlcf	(___awmod@divisor+1)^0,f,c
  2653   001A66  2A05               	incf	___awmod@counter^0,f,c
  2654   001A68                     l2920:
  2655   001A68  AE04               	btfss	(___awmod@divisor+1)^0,7,c
  2656   001A6A  EF39  F00D         	goto	u2081
  2657   001A6E  EF3B  F00D         	goto	u2080
  2658   001A72                     u2081:
  2659   001A72  EF30  F00D         	goto	l2918
  2660   001A76                     u2080:
  2661   001A76                     l2922:
  2662   001A76  5003               	movf	___awmod@divisor^0,w,c
  2663   001A78  5C01               	subwf	___awmod@dividend^0,w,c
  2664   001A7A  5004               	movf	(___awmod@divisor+1)^0,w,c
  2665   001A7C  5802               	subwfb	(___awmod@dividend+1)^0,w,c
  2666   001A7E  A0D8               	btfss	status,0,c
  2667   001A80  EF44  F00D         	goto	u2091
  2668   001A84  EF46  F00D         	goto	u2090
  2669   001A88                     u2091:
  2670   001A88  EF4A  F00D         	goto	l2926
  2671   001A8C                     u2090:
  2672   001A8C  5003               	movf	___awmod@divisor^0,w,c
  2673   001A8E  5E01               	subwf	___awmod@dividend^0,f,c
  2674   001A90  5004               	movf	(___awmod@divisor+1)^0,w,c
  2675   001A92  5A02               	subwfb	(___awmod@dividend+1)^0,f,c
  2676   001A94                     l2926:
  2677   001A94  90D8               	bcf	status,0,c
  2678   001A96  3204               	rrcf	(___awmod@divisor+1)^0,f,c
  2679   001A98  3203               	rrcf	___awmod@divisor^0,f,c
  2680   001A9A  2E05               	decfsz	___awmod@counter^0,f,c
  2681   001A9C  EF3B  F00D         	goto	l2922
  2682   001AA0                     l2930:
  2683   001AA0  5006               	movf	___awmod@sign^0,w,c
  2684   001AA2  B4D8               	btfsc	status,2,c
  2685   001AA4  EF56  F00D         	goto	u2101
  2686   001AA8  EF58  F00D         	goto	u2100
  2687   001AAC                     u2101:
  2688   001AAC  EF5C  F00D         	goto	l2934
  2689   001AB0                     u2100:
  2690   001AB0  6C01               	negf	___awmod@dividend^0,c
  2691   001AB2  1E02               	comf	(___awmod@dividend+1)^0,f,c
  2692   001AB4  B0D8               	btfsc	status,0,c
  2693   001AB6  2A02               	incf	(___awmod@dividend+1)^0,f,c
  2694   001AB8                     l2934:
  2695   001AB8  C001  F001         	movff	___awmod@dividend,?___awmod
  2696   001ABC  C002  F002         	movff	___awmod@dividend+1,?___awmod+1
  2697   001AC0  0012               	return		;funcret
  2698   001AC2                     __end_of___awmod:
  2699                           	callstack 0
  2700                           
  2701 ;; *************** function ___awdiv *****************
  2702 ;; Defined at:
  2703 ;;		line 7 in file "C:\Program Files\Microchip\xc8\v2.45\pic\sources\c99\common\awdiv.c"
  2704 ;; Parameters:    Size  Location     Type
  2705 ;;  dividend        2    0[COMRAM] int 
  2706 ;;  divisor         2    2[COMRAM] int 
  2707 ;; Auto vars:     Size  Location     Type
  2708 ;;  quotient        2    6[COMRAM] int 
  2709 ;;  sign            1    5[COMRAM] unsigned char 
  2710 ;;  counter         1    4[COMRAM] unsigned char 
  2711 ;; Return value:  Size  Location     Type
  2712 ;;                  2    0[COMRAM] int 
  2713 ;; Registers used:
  2714 ;;		wreg, status,2, status,0
  2715 ;; Tracked objects:
  2716 ;;		On entry : 0/0
  2717 ;;		On exit  : 0/0
  2718 ;;		Unchanged: 0/0
  2719 ;; Data sizes:     COMRAM   BANK0   BANK1   BANK2   BANK3   BANK4   BANK5   BANK6   BANK7   BANK8   BANK9  BANK10  BANK1
      +1  BANK12  BANK13  BANK14  BANK15
  2720 ;;      Params:         4       0       0       0       0       0       0       0       0       0       0       0       
      +0       0       0       0       0
  2721 ;;      Locals:         4       0       0       0       0       0       0       0       0       0       0       0       
      +0       0       0       0       0
  2722 ;;      Temps:          0       0       0       0       0       0       0       0       0       0       0       0       
      +0       0       0       0       0
  2723 ;;      Totals:         8       0       0       0       0       0       0       0       0       0       0       0       
      +0       0       0       0       0
  2724 ;;Total ram usage:        8 bytes
  2725 ;; Hardware stack levels used: 1
  2726 ;; This function calls:
  2727 ;;		Nothing
  2728 ;; This function is called by:
  2729 ;;		_vfpfcnvrt
  2730 ;; This function uses a non-reentrant model
  2731 ;;
  2732                           
  2733                           	psect	text16
  2734   001892                     __ptext16:
  2735                           	callstack 0
  2736   001892                     ___awdiv:
  2737                           	callstack 26
  2738   001892  0E00               	movlw	0
  2739   001894  6E06               	movwf	___awdiv@sign^0,c
  2740   001896  BE04               	btfsc	(___awdiv@divisor+1)^0,7,c
  2741   001898  EF52  F00C         	goto	u1990
  2742   00189C  EF50  F00C         	goto	u1991
  2743   0018A0                     u1991:
  2744   0018A0  EF58  F00C         	goto	l2866
  2745   0018A4                     u1990:
  2746   0018A4  6C03               	negf	___awdiv@divisor^0,c
  2747   0018A6  1E04               	comf	(___awdiv@divisor+1)^0,f,c
  2748   0018A8  B0D8               	btfsc	status,0,c
  2749   0018AA  2A04               	incf	(___awdiv@divisor+1)^0,f,c
  2750   0018AC  0E01               	movlw	1
  2751   0018AE  6E06               	movwf	___awdiv@sign^0,c
  2752   0018B0                     l2866:
  2753   0018B0  BE02               	btfsc	(___awdiv@dividend+1)^0,7,c
  2754   0018B2  EF5F  F00C         	goto	u2000
  2755   0018B6  EF5D  F00C         	goto	u2001
  2756   0018BA                     u2001:
  2757   0018BA  EF65  F00C         	goto	l2872
  2758   0018BE                     u2000:
  2759   0018BE  6C01               	negf	___awdiv@dividend^0,c
  2760   0018C0  1E02               	comf	(___awdiv@dividend+1)^0,f,c
  2761   0018C2  B0D8               	btfsc	status,0,c
  2762   0018C4  2A02               	incf	(___awdiv@dividend+1)^0,f,c
  2763   0018C6  0E01               	movlw	1
  2764   0018C8  1A06               	xorwf	___awdiv@sign^0,f,c
  2765   0018CA                     l2872:
  2766   0018CA  0E00               	movlw	0
  2767   0018CC  6E08               	movwf	(___awdiv@quotient+1)^0,c
  2768   0018CE  0E00               	movlw	0
  2769   0018D0  6E07               	movwf	___awdiv@quotient^0,c
  2770   0018D2  5003               	movf	___awdiv@divisor^0,w,c
  2771   0018D4  1004               	iorwf	(___awdiv@divisor+1)^0,w,c
  2772   0018D6  B4D8               	btfsc	status,2,c
  2773   0018D8  EF70  F00C         	goto	u2011
  2774   0018DC  EF72  F00C         	goto	u2010
  2775   0018E0                     u2011:
  2776   0018E0  EF9A  F00C         	goto	l2894
  2777   0018E4                     u2010:
  2778   0018E4  0E01               	movlw	1
  2779   0018E6  6E05               	movwf	___awdiv@counter^0,c
  2780   0018E8  EF7A  F00C         	goto	l2880
  2781   0018EC                     l2878:
  2782   0018EC  90D8               	bcf	status,0,c
  2783   0018EE  3603               	rlcf	___awdiv@divisor^0,f,c
  2784   0018F0  3604               	rlcf	(___awdiv@divisor+1)^0,f,c
  2785   0018F2  2A05               	incf	___awdiv@counter^0,f,c
  2786   0018F4                     l2880:
  2787   0018F4  AE04               	btfss	(___awdiv@divisor+1)^0,7,c
  2788   0018F6  EF7F  F00C         	goto	u2021
  2789   0018FA  EF81  F00C         	goto	u2020
  2790   0018FE                     u2021:
  2791   0018FE  EF76  F00C         	goto	l2878
  2792   001902                     u2020:
  2793   001902                     l2882:
  2794   001902  90D8               	bcf	status,0,c
  2795   001904  3607               	rlcf	___awdiv@quotient^0,f,c
  2796   001906  3608               	rlcf	(___awdiv@quotient+1)^0,f,c
  2797   001908  5003               	movf	___awdiv@divisor^0,w,c
  2798   00190A  5C01               	subwf	___awdiv@dividend^0,w,c
  2799   00190C  5004               	movf	(___awdiv@divisor+1)^0,w,c
  2800   00190E  5802               	subwfb	(___awdiv@dividend+1)^0,w,c
  2801   001910  A0D8               	btfss	status,0,c
  2802   001912  EF8D  F00C         	goto	u2031
  2803   001916  EF8F  F00C         	goto	u2030
  2804   00191A                     u2031:
  2805   00191A  EF94  F00C         	goto	l2890
  2806   00191E                     u2030:
  2807   00191E  5003               	movf	___awdiv@divisor^0,w,c
  2808   001920  5E01               	subwf	___awdiv@dividend^0,f,c
  2809   001922  5004               	movf	(___awdiv@divisor+1)^0,w,c
  2810   001924  5A02               	subwfb	(___awdiv@dividend+1)^0,f,c
  2811   001926  8007               	bsf	___awdiv@quotient^0,0,c
  2812   001928                     l2890:
  2813   001928  90D8               	bcf	status,0,c
  2814   00192A  3204               	rrcf	(___awdiv@divisor+1)^0,f,c
  2815   00192C  3203               	rrcf	___awdiv@divisor^0,f,c
  2816   00192E  2E05               	decfsz	___awdiv@counter^0,f,c
  2817   001930  EF81  F00C         	goto	l2882
  2818   001934                     l2894:
  2819   001934  5006               	movf	___awdiv@sign^0,w,c
  2820   001936  B4D8               	btfsc	status,2,c
  2821   001938  EFA0  F00C         	goto	u2041
  2822   00193C  EFA2  F00C         	goto	u2040
  2823   001940                     u2041:
  2824   001940  EFA6  F00C         	goto	l2898
  2825   001944                     u2040:
  2826   001944  6C07               	negf	___awdiv@quotient^0,c
  2827   001946  1E08               	comf	(___awdiv@quotient+1)^0,f,c
  2828   001948  B0D8               	btfsc	status,0,c
  2829   00194A  2A08               	incf	(___awdiv@quotient+1)^0,f,c
  2830   00194C                     l2898:
  2831   00194C  C007  F001         	movff	___awdiv@quotient,?___awdiv
  2832   001950  C008  F002         	movff	___awdiv@quotient+1,?___awdiv+1
  2833   001954  0012               	return		;funcret
  2834   001956                     __end_of___awdiv:
  2835                           	callstack 0
  2836                           
  2837 ;; *************** function _memset *****************
  2838 ;; Defined at:
  2839 ;;		line 3 in file "C:\Program Files\Microchip\xc8\v2.45\pic\sources\c99\common\memset.c"
  2840 ;; Parameters:    Size  Location     Type
  2841 ;;  dest            1    0[COMRAM] PTR void 
  2842 ;;		 -> tries_txt(4), input(6), 
  2843 ;;  c               2    1[COMRAM] int 
  2844 ;;  n               2    3[COMRAM] unsigned int 
  2845 ;; Auto vars:     Size  Location     Type
  2846 ;;  p               1    5[COMRAM] PTR unsigned char 
  2847 ;;		 -> tries_txt(4), input(6), 
  2848 ;; Return value:  Size  Location     Type
  2849 ;;                  1    wreg      PTR void 
  2850 ;; Registers used:
  2851 ;;		wreg, fsr2l, fsr2h, status,2, status,0
  2852 ;; Tracked objects:
  2853 ;;		On entry : 0/0
  2854 ;;		On exit  : 0/0
  2855 ;;		Unchanged: 0/0
  2856 ;; Data sizes:     COMRAM   BANK0   BANK1   BANK2   BANK3   BANK4   BANK5   BANK6   BANK7   BANK8   BANK9  BANK10  BANK1
      +1  BANK12  BANK13  BANK14  BANK15
  2857 ;;      Params:         5       0       0       0       0       0       0       0       0       0       0       0       
      +0       0       0       0       0
  2858 ;;      Locals:         1       0       0       0       0       0       0       0       0       0       0       0       
      +0       0       0       0       0
  2859 ;;      Temps:          0       0       0       0       0       0       0       0       0       0       0       0       
      +0       0       0       0       0
  2860 ;;      Totals:         6       0       0       0       0       0       0       0       0       0       0       0       
      +0       0       0       0       0
  2861 ;;Total ram usage:        6 bytes
  2862 ;; Hardware stack levels used: 1
  2863 ;; This function calls:
  2864 ;;		Nothing
  2865 ;; This function is called by:
  2866 ;;		_enter_password
  2867 ;;		_convert_uint8_to_string
  2868 ;;		_convert_uint16_to_string
  2869 ;;		_convert_uint32_to_string
  2870 ;; This function uses a non-reentrant model
  2871 ;;
  2872                           
  2873                           	psect	text17
  2874   0021F4                     __ptext17:
  2875                           	callstack 0
  2876   0021F4                     _memset:
  2877                           	callstack 29
  2878   0021F4  C001  F006         	movff	memset@dest,memset@p
  2879   0021F8  EF04  F011         	goto	l3254
  2880   0021FC                     l3250:
  2881   0021FC  5006               	movf	memset@p^0,w,c
  2882   0021FE  6ED9               	movwf	fsr2l,c
  2883   002200  6ADA               	clrf	fsr2h,c
  2884   002202  C002  FFDF         	movff	memset@c,indf2
  2885   002206  2A06               	incf	memset@p^0,f,c
  2886   002208                     l3254:
  2887   002208  0604               	decf	memset@n^0,f,c
  2888   00220A  A0D8               	btfss	status,0,c
  2889   00220C  0605               	decf	(memset@n+1)^0,f,c
  2890   00220E  2804               	incf	memset@n^0,w,c
  2891   002210  E106               	bnz	u2581
  2892   002212  2805               	incf	(memset@n+1)^0,w,c
  2893   002214  A4D8               	btfss	status,2,c
  2894   002216  EF0F  F011         	goto	u2581
  2895   00221A  EF11  F011         	goto	u2580
  2896   00221E                     u2581:
  2897   00221E  EFFE  F010         	goto	l3250
  2898   002222                     u2580:
  2899   002222  0012               	return		;funcret
  2900   002224                     __end_of_memset:
  2901                           	callstack 0
  2902                           
  2903 ;; *************** function _compare *****************
  2904 ;; Defined at:
  2905 ;;		line 98 in file "application.c"
  2906 ;; Parameters:    Size  Location     Type
  2907 ;;  _input          1   26[COMRAM] PTR unsigned char 
  2908 ;;		 -> input(6), 
  2909 ;;  _password       1   27[COMRAM] PTR unsigned char 
  2910 ;;		 -> password(6), 
  2911 ;; Auto vars:     Size  Location     Type
  2912 ;;  l_counter       1   31[COMRAM] unsigned char 
  2913 ;;  flag            1   30[COMRAM] unsigned char 
  2914 ;; Return value:  Size  Location     Type
  2915 ;;                  1    wreg      unsigned char 
  2916 ;; Registers used:
  2917 ;;		wreg, fsr0l, fsr0h, fsr1l, fsr1h, fsr2l, fsr2h, status,2, status,0, tblptrl, tblptrh, tblptru, prodl, prodh, cstack
  2918 ;; Tracked objects:
  2919 ;;		On entry : 0/0
  2920 ;;		On exit  : 0/0
  2921 ;;		Unchanged: 0/0
  2922 ;; Data sizes:     COMRAM   BANK0   BANK1   BANK2   BANK3   BANK4   BANK5   BANK6   BANK7   BANK8   BANK9  BANK10  BANK1
      +1  BANK12  BANK13  BANK14  BANK15
  2923 ;;      Params:         2       0       0       0       0       0       0       0       0       0       0       0       
      +0       0       0       0       0
  2924 ;;      Locals:         2       0       0       0       0       0       0       0       0       0       0       0       
      +0       0       0       0       0
  2925 ;;      Temps:          2       0       0       0       0       0       0       0       0       0       0       0       
      +0       0       0       0       0
  2926 ;;      Totals:         6       0       0       0       0       0       0       0       0       0       0       0       
      +0       0       0       0       0
  2927 ;;Total ram usage:        6 bytes
  2928 ;; Hardware stack levels used: 1
  2929 ;; Hardware stack levels required when called: 5
  2930 ;; This function calls:
  2931 ;;		_clear_lcd
  2932 ;;		_lcd_4bit_send_string_pos
  2933 ;; This function is called by:
  2934 ;;		_main
  2935 ;; This function uses a non-reentrant model
  2936 ;;
  2937                           
  2938                           	psect	text18
  2939   001956                     __ptext18:
  2940                           	callstack 0
  2941   001956                     _compare:
  2942                           	callstack 25
  2943   001956                     
  2944                           ;application.c: 98: uint8 compare(uint8* _input, uint8* _password);application.c: 99: {;
      +                          application.c: 100:     uint8 flag = 1;
  2945   001956  0E01               	movlw	1
  2946   001958  6E1F               	movwf	compare@flag^0,c
  2947                           
  2948                           ;application.c: 101:     uint8 l_counter = 0;
  2949   00195A  0E00               	movlw	0
  2950   00195C  6E20               	movwf	compare@l_counter^0,c
  2951                           
  2952                           ;application.c: 102:     for(l_counter = 0; l_counter < 5; ++l_counter)
  2953   00195E  0E00               	movlw	0
  2954   001960  6E20               	movwf	compare@l_counter^0,c
  2955   001962                     l4464:
  2956                           
  2957                           ;application.c: 103:     {;application.c: 104:         if(_input[l_counter] != _password
      +                          [l_counter])
  2958   001962  501C               	movf	compare@_password^0,w,c
  2959   001964  2420               	addwf	compare@l_counter^0,w,c
  2960   001966  6ED9               	movwf	fsr2l,c
  2961   001968  6ADA               	clrf	fsr2h,c
  2962   00196A  501B               	movf	compare@_input^0,w,c
  2963   00196C  2420               	addwf	compare@l_counter^0,w,c
  2964   00196E  6EE1               	movwf	fsr1l,c
  2965   001970  6AE2               	clrf	fsr1h,c
  2966   001972  50DE               	movf	postinc2,w,c
  2967   001974  18E6               	xorwf	postinc1,w,c
  2968   001976  B4D8               	btfsc	status,2,c
  2969   001978  EFC0  F00C         	goto	u4041
  2970   00197C  EFC2  F00C         	goto	u4040
  2971   001980                     u4041:
  2972   001980  EFC6  F00C         	goto	l4468
  2973   001984                     u4040:
  2974   001984                     
  2975                           ;application.c: 105:         {;application.c: 106:             flag = 0;
  2976   001984  0E00               	movlw	0
  2977   001986  6E1F               	movwf	compare@flag^0,c
  2978                           
  2979                           ;application.c: 107:             break;
  2980   001988  EFCF  F00C         	goto	l4472
  2981   00198C                     l4468:
  2982                           
  2983                           ;application.c: 109:     }
  2984   00198C  2A20               	incf	compare@l_counter^0,f,c
  2985   00198E  0E04               	movlw	4
  2986   001990  6420               	cpfsgt	compare@l_counter^0,c
  2987   001992  EFCD  F00C         	goto	u4051
  2988   001996  EFCF  F00C         	goto	u4050
  2989   00199A                     u4051:
  2990   00199A  EFB1  F00C         	goto	l4464
  2991   00199E                     u4050:
  2992   00199E                     l4472:
  2993                           
  2994                           ;application.c: 110:     if(flag == 1)
  2995   00199E  041F               	decf	compare@flag^0,w,c
  2996   0019A0  A4D8               	btfss	status,2,c
  2997   0019A2  EFD5  F00C         	goto	u4061
  2998   0019A6  EFD7  F00C         	goto	u4060
  2999   0019AA                     u4061:
  3000   0019AA  EFE9  F00C         	goto	l4478
  3001   0019AE                     u4060:
  3002   0019AE                     
  3003                           ;application.c: 111:     {;application.c: 112:         clear_lcd();
  3004   0019AE  EC24  F011         	call	_clear_lcd	;wreg free
  3005   0019B2                     
  3006                           ;application.c: 113:         lcd_4bit_send_string_pos(&lcd, 2, 7, "Correct");
  3007   0019B2  0E77               	movlw	low _lcd
  3008   0019B4  6E15               	movwf	lcd_4bit_send_string_pos@lcd^0,c
  3009   0019B6  0E02               	movlw	2
  3010   0019B8  6E16               	movwf	lcd_4bit_send_string_pos@row^0,c
  3011   0019BA  0E07               	movlw	7
  3012   0019BC  6E17               	movwf	lcd_4bit_send_string_pos@column^0,c
  3013   0019BE  0E55               	movlw	low STR_2
  3014   0019C0  6E18               	movwf	lcd_4bit_send_string_pos@str^0,c
  3015   0019C2  5018               	movf	lcd_4bit_send_string_pos@str^0,w,c
  3016   0019C4  A4D8               	btfss	status,2,c
  3017   0019C6  0E10               	movlw	high __smallconst
  3018   0019C8  6E19               	movwf	(lcd_4bit_send_string_pos@str+1)^0,c
  3019   0019CA  EC95  F00E         	call	_lcd_4bit_send_string_pos	;wreg free
  3020                           
  3021                           ;application.c: 114:     }
  3022   0019CE  EF07  F00D         	goto	l4484
  3023   0019D2                     l4478:
  3024                           
  3025                           ;application.c: 116:     {;application.c: 117:         clear_lcd();
  3026   0019D2  EC24  F011         	call	_clear_lcd	;wreg free
  3027   0019D6                     
  3028                           ;application.c: 118:         lcd_4bit_send_string_pos(&lcd, 2, 9, "Wrong");
  3029   0019D6  0E77               	movlw	low _lcd
  3030   0019D8  6E15               	movwf	lcd_4bit_send_string_pos@lcd^0,c
  3031   0019DA  0E02               	movlw	2
  3032   0019DC  6E16               	movwf	lcd_4bit_send_string_pos@row^0,c
  3033   0019DE  0E09               	movlw	9
  3034   0019E0  6E17               	movwf	lcd_4bit_send_string_pos@column^0,c
  3035   0019E2  0E5D               	movlw	low STR_3
  3036   0019E4  6E18               	movwf	lcd_4bit_send_string_pos@str^0,c
  3037   0019E6  5018               	movf	lcd_4bit_send_string_pos@str^0,w,c
  3038   0019E8  A4D8               	btfss	status,2,c
  3039   0019EA  0E10               	movlw	high __smallconst
  3040   0019EC  6E19               	movwf	(lcd_4bit_send_string_pos@str+1)^0,c
  3041   0019EE  EC95  F00E         	call	_lcd_4bit_send_string_pos	;wreg free
  3042   0019F2                     
  3043                           ;application.c: 119:         lcd_4bit_send_string_pos(&lcd, 3, 6, "Try again!");
  3044   0019F2  0E77               	movlw	low _lcd
  3045   0019F4  6E15               	movwf	lcd_4bit_send_string_pos@lcd^0,c
  3046   0019F6  0E03               	movlw	3
  3047   0019F8  6E16               	movwf	lcd_4bit_send_string_pos@row^0,c
  3048   0019FA  0E06               	movlw	6
  3049   0019FC  6E17               	movwf	lcd_4bit_send_string_pos@column^0,c
  3050   0019FE  0E42               	movlw	low STR_4
  3051   001A00  6E18               	movwf	lcd_4bit_send_string_pos@str^0,c
  3052   001A02  5018               	movf	lcd_4bit_send_string_pos@str^0,w,c
  3053   001A04  A4D8               	btfss	status,2,c
  3054   001A06  0E10               	movlw	high __smallconst
  3055   001A08  6E19               	movwf	(lcd_4bit_send_string_pos@str+1)^0,c
  3056   001A0A  EC95  F00E         	call	_lcd_4bit_send_string_pos	;wreg free
  3057   001A0E                     l4484:
  3058                           
  3059                           ;application.c: 121:     return flag;
  3060   001A0E  501F               	movf	compare@flag^0,w,c
  3061   001A10  0012               	return		;funcret
  3062   001A12                     __end_of_compare:
  3063                           	callstack 0
  3064                           
  3065 ;; *************** function _lcd_4bit_send_string_pos *****************
  3066 ;; Defined at:
  3067 ;;		line 160 in file "ECU_layer/LCD/LCD.c"
  3068 ;; Parameters:    Size  Location     Type
  3069 ;;  lcd             1   20[COMRAM] PTR const struct .
  3070 ;;		 -> lcd(6), 
  3071 ;;  row             1   21[COMRAM] unsigned char 
  3072 ;;  column          1   22[COMRAM] unsigned char 
  3073 ;;  str             2   23[COMRAM] PTR unsigned char 
  3074 ;;		 -> STR_4(11), STR_3(6), STR_2(8), tries_txt(4), 
  3075 ;;		 -> STR_1(8), 
  3076 ;; Auto vars:     Size  Location     Type
  3077 ;;  ret             1   25[COMRAM] unsigned char 
  3078 ;; Return value:  Size  Location     Type
  3079 ;;                  1    wreg      unsigned char 
  3080 ;; Registers used:
  3081 ;;		wreg, fsr0l, fsr0h, fsr2l, fsr2h, status,2, status,0, tblptrl, tblptrh, tblptru, prodl, prodh, cstack
  3082 ;; Tracked objects:
  3083 ;;		On entry : 0/0
  3084 ;;		On exit  : 0/0
  3085 ;;		Unchanged: 0/0
  3086 ;; Data sizes:     COMRAM   BANK0   BANK1   BANK2   BANK3   BANK4   BANK5   BANK6   BANK7   BANK8   BANK9  BANK10  BANK1
      +1  BANK12  BANK13  BANK14  BANK15
  3087 ;;      Params:         5       0       0       0       0       0       0       0       0       0       0       0       
      +0       0       0       0       0
  3088 ;;      Locals:         1       0       0       0       0       0       0       0       0       0       0       0       
      +0       0       0       0       0
  3089 ;;      Temps:          0       0       0       0       0       0       0       0       0       0       0       0       
      +0       0       0       0       0
  3090 ;;      Totals:         6       0       0       0       0       0       0       0       0       0       0       0       
      +0       0       0       0       0
  3091 ;;Total ram usage:        6 bytes
  3092 ;; Hardware stack levels used: 1
  3093 ;; Hardware stack levels required when called: 4
  3094 ;; This function calls:
  3095 ;;		_lcd_4bit_send_string
  3096 ;;		_lcd_4bit_set_cursor
  3097 ;; This function is called by:
  3098 ;;		_main
  3099 ;;		_compare
  3100 ;; This function uses a non-reentrant model
  3101 ;;
  3102                           
  3103                           	psect	text19
  3104   001D2A                     __ptext19:
  3105                           	callstack 0
  3106   001D2A                     _lcd_4bit_send_string_pos:
  3107                           	callstack 26
  3108   001D2A                     
  3109                           ;ECU_layer/LCD/LCD.c: 163:     if(lcd == ((void*)0) || str == ((void*)0) || row > 4 || c
      +                          olumn > 20)
  3110   001D2A  5015               	movf	lcd_4bit_send_string_pos@lcd^0,w,c
  3111   001D2C  B4D8               	btfsc	status,2,c
  3112   001D2E  EF9B  F00E         	goto	u3821
  3113   001D32  EF9D  F00E         	goto	u3820
  3114   001D36                     u3821:
  3115   001D36  EFB6  F00E         	goto	l4298
  3116   001D3A                     u3820:
  3117   001D3A  5018               	movf	lcd_4bit_send_string_pos@str^0,w,c
  3118   001D3C  1019               	iorwf	(lcd_4bit_send_string_pos@str+1)^0,w,c
  3119   001D3E  B4D8               	btfsc	status,2,c
  3120   001D40  EFA4  F00E         	goto	u3831
  3121   001D44  EFA6  F00E         	goto	u3830
  3122   001D48                     u3831:
  3123   001D48  EFB6  F00E         	goto	l4298
  3124   001D4C                     u3830:
  3125   001D4C  0E05               	movlw	5
  3126   001D4E  6016               	cpfslt	lcd_4bit_send_string_pos@row^0,c
  3127   001D50  EFAC  F00E         	goto	u3841
  3128   001D54  EFAE  F00E         	goto	u3840
  3129   001D58                     u3841:
  3130   001D58  EFB6  F00E         	goto	l4298
  3131   001D5C                     u3840:
  3132   001D5C  0E14               	movlw	20
  3133   001D5E  6417               	cpfsgt	lcd_4bit_send_string_pos@column^0,c
  3134   001D60  EFB4  F00E         	goto	u3851
  3135   001D64  EFB6  F00E         	goto	u3850
  3136   001D68                     u3851:
  3137   001D68  EFBA  F00E         	goto	l4300
  3138   001D6C                     u3850:
  3139   001D6C                     l4298:
  3140                           
  3141                           ;ECU_layer/LCD/LCD.c: 164:     {;ECU_layer/LCD/LCD.c: 165:         ret = (Std_ReturnType
      +                          ) 0x00;
  3142   001D6C  0E00               	movlw	0
  3143   001D6E  6E1A               	movwf	lcd_4bit_send_string_pos@ret^0,c
  3144                           
  3145                           ;ECU_layer/LCD/LCD.c: 166:     }
  3146   001D70  EFCB  F00E         	goto	l4304
  3147   001D74                     l4300:
  3148   001D74  C015  F00F         	movff	lcd_4bit_send_string_pos@lcd,lcd_4bit_set_cursor@lcd
  3149   001D78  C016  F010         	movff	lcd_4bit_send_string_pos@row,lcd_4bit_set_cursor@row
  3150   001D7C  C017  F011         	movff	lcd_4bit_send_string_pos@column,lcd_4bit_set_cursor@column
  3151   001D80  ECE3  F00B         	call	_lcd_4bit_set_cursor	;wreg free
  3152   001D84                     
  3153                           ;ECU_layer/LCD/LCD.c: 170:         ret = lcd_4bit_send_string(lcd, str);
  3154   001D84  C015  F00F         	movff	lcd_4bit_send_string_pos@lcd,lcd_4bit_send_string@lcd
  3155   001D88  C018  F010         	movff	lcd_4bit_send_string_pos@str,lcd_4bit_send_string@str
  3156   001D8C  C019  F011         	movff	lcd_4bit_send_string_pos@str+1,lcd_4bit_send_string@str+1
  3157   001D90  EC08  F00E         	call	_lcd_4bit_send_string	;wreg free
  3158   001D94  6E1A               	movwf	lcd_4bit_send_string_pos@ret^0,c
  3159   001D96                     l4304:
  3160                           
  3161                           ;ECU_layer/LCD/LCD.c: 172:     return ret;
  3162   001D96  501A               	movf	lcd_4bit_send_string_pos@ret^0,w,c
  3163   001D98  0012               	return		;funcret
  3164   001D9A                     __end_of_lcd_4bit_send_string_pos:
  3165                           	callstack 0
  3166                           
  3167 ;; *************** function _lcd_4bit_set_cursor *****************
  3168 ;; Defined at:
  3169 ;;		line 532 in file "ECU_layer/LCD/LCD.c"
  3170 ;; Parameters:    Size  Location     Type
  3171 ;;  lcd             1   14[COMRAM] PTR const struct .
  3172 ;;		 -> lcd(6), 
  3173 ;;  row             1   15[COMRAM] unsigned char 
  3174 ;;  column          1   16[COMRAM] unsigned char 
  3175 ;; Auto vars:     Size  Location     Type
  3176 ;;  ret             1   19[COMRAM] unsigned char 
  3177 ;; Return value:  Size  Location     Type
  3178 ;;                  1    wreg      unsigned char 
  3179 ;; Registers used:
  3180 ;;		wreg, fsr2l, fsr2h, status,2, status,0, prodl, prodh, cstack
  3181 ;; Tracked objects:
  3182 ;;		On entry : 0/0
  3183 ;;		On exit  : 0/0
  3184 ;;		Unchanged: 0/0
  3185 ;; Data sizes:     COMRAM   BANK0   BANK1   BANK2   BANK3   BANK4   BANK5   BANK6   BANK7   BANK8   BANK9  BANK10  BANK1
      +1  BANK12  BANK13  BANK14  BANK15
  3186 ;;      Params:         3       0       0       0       0       0       0       0       0       0       0       0       
      +0       0       0       0       0
  3187 ;;      Locals:         1       0       0       0       0       0       0       0       0       0       0       0       
      +0       0       0       0       0
  3188 ;;      Temps:          2       0       0       0       0       0       0       0       0       0       0       0       
      +0       0       0       0       0
  3189 ;;      Totals:         6       0       0       0       0       0       0       0       0       0       0       0       
      +0       0       0       0       0
  3190 ;;Total ram usage:        6 bytes
  3191 ;; Hardware stack levels used: 1
  3192 ;; Hardware stack levels required when called: 3
  3193 ;; This function calls:
  3194 ;;		_lcd_4bit_send_command
  3195 ;; This function is called by:
  3196 ;;		_lcd_4bit_send_char_data_pos
  3197 ;;		_lcd_4bit_send_string_pos
  3198 ;; This function uses a non-reentrant model
  3199 ;;
  3200                           
  3201                           	psect	text20
  3202   0017C6                     __ptext20:
  3203                           	callstack 0
  3204   0017C6                     _lcd_4bit_set_cursor:
  3205                           	callstack 24
  3206   0017C6                     
  3207                           ;ECU_layer/LCD/LCD.c: 532: static Std_ReturnType lcd_4bit_set_cursor(const lcd_4bit_t* l
      +                          cd, uint8 row, uint8 column);ECU_layer/LCD/LCD.c: 533: {;ECU_layer/LCD/LCD.c: 534:     S
      +                          td_ReturnType ret = (Std_ReturnType) 0x01;
  3208   0017C6  0E01               	movlw	1
  3209   0017C8  6E14               	movwf	lcd_4bit_set_cursor@ret^0,c
  3210   0017CA                     
  3211                           ;ECU_layer/LCD/LCD.c: 535:     column--;
  3212   0017CA  0611               	decf	lcd_4bit_set_cursor@column^0,f,c
  3213   0017CC                     
  3214                           ;ECU_layer/LCD/LCD.c: 536:     if(lcd == ((void*)0) || row > 4 || column > 20)
  3215   0017CC  500F               	movf	lcd_4bit_set_cursor@lcd^0,w,c
  3216   0017CE  B4D8               	btfsc	status,2,c
  3217   0017D0  EFEC  F00B         	goto	u3571
  3218   0017D4  EFEE  F00B         	goto	u3570
  3219   0017D8                     u3571:
  3220   0017D8  EFFE  F00B         	goto	l4086
  3221   0017DC                     u3570:
  3222   0017DC  0E05               	movlw	5
  3223   0017DE  6010               	cpfslt	lcd_4bit_set_cursor@row^0,c
  3224   0017E0  EFF4  F00B         	goto	u3581
  3225   0017E4  EFF6  F00B         	goto	u3580
  3226   0017E8                     u3581:
  3227   0017E8  EFFE  F00B         	goto	l4086
  3228   0017EC                     u3580:
  3229   0017EC  0E14               	movlw	20
  3230   0017EE  6411               	cpfsgt	lcd_4bit_set_cursor@column^0,c
  3231   0017F0  EFFC  F00B         	goto	u3591
  3232   0017F4  EFFE  F00B         	goto	u3590
  3233   0017F8                     u3591:
  3234   0017F8  EF2A  F00C         	goto	l4098
  3235   0017FC                     u3590:
  3236   0017FC                     l4086:
  3237                           
  3238                           ;ECU_layer/LCD/LCD.c: 537:     {;ECU_layer/LCD/LCD.c: 538:         ret = (Std_ReturnType
      +                          ) 0x00;
  3239   0017FC  0E00               	movlw	0
  3240   0017FE  6E14               	movwf	lcd_4bit_set_cursor@ret^0,c
  3241                           
  3242                           ;ECU_layer/LCD/LCD.c: 539:     }
  3243   001800  EF47  F00C         	goto	l4100
  3244   001804                     l4088:
  3245   001804  C00F  F00C         	movff	lcd_4bit_set_cursor@lcd,lcd_4bit_send_command@lcd
  3246   001808  5011               	movf	lcd_4bit_set_cursor@column^0,w,c
  3247   00180A  0F80               	addlw	128
  3248   00180C  6E0D               	movwf	lcd_4bit_send_command@command^0,c
  3249   00180E  ECF1  F00F         	call	_lcd_4bit_send_command	;wreg free
  3250   001812  6E14               	movwf	lcd_4bit_set_cursor@ret^0,c
  3251   001814  EF47  F00C         	goto	l4100
  3252   001818                     l4090:
  3253   001818  C00F  F00C         	movff	lcd_4bit_set_cursor@lcd,lcd_4bit_send_command@lcd
  3254   00181C  5011               	movf	lcd_4bit_set_cursor@column^0,w,c
  3255   00181E  0FC0               	addlw	192
  3256   001820  6E0D               	movwf	lcd_4bit_send_command@command^0,c
  3257   001822  ECF1  F00F         	call	_lcd_4bit_send_command	;wreg free
  3258   001826  6E14               	movwf	lcd_4bit_set_cursor@ret^0,c
  3259   001828  EF47  F00C         	goto	l4100
  3260   00182C                     l4092:
  3261   00182C  C00F  F00C         	movff	lcd_4bit_set_cursor@lcd,lcd_4bit_send_command@lcd
  3262   001830  5011               	movf	lcd_4bit_set_cursor@column^0,w,c
  3263   001832  0F94               	addlw	148
  3264   001834  6E0D               	movwf	lcd_4bit_send_command@command^0,c
  3265   001836  ECF1  F00F         	call	_lcd_4bit_send_command	;wreg free
  3266   00183A  6E14               	movwf	lcd_4bit_set_cursor@ret^0,c
  3267   00183C  EF47  F00C         	goto	l4100
  3268   001840                     l4094:
  3269   001840  C00F  F00C         	movff	lcd_4bit_set_cursor@lcd,lcd_4bit_send_command@lcd
  3270   001844  5011               	movf	lcd_4bit_set_cursor@column^0,w,c
  3271   001846  0FD4               	addlw	212
  3272   001848  6E0D               	movwf	lcd_4bit_send_command@command^0,c
  3273   00184A  ECF1  F00F         	call	_lcd_4bit_send_command	;wreg free
  3274   00184E  6E14               	movwf	lcd_4bit_set_cursor@ret^0,c
  3275   001850  EF47  F00C         	goto	l4100
  3276   001854                     l4098:
  3277   001854  5010               	movf	lcd_4bit_set_cursor@row^0,w,c
  3278   001856  6E12               	movwf	??_lcd_4bit_set_cursor^0,c
  3279   001858  6A13               	clrf	(??_lcd_4bit_set_cursor+1)^0,c
  3280                           
  3281                           ; Switch on 2 bytes has been partitioned into a top level switch of size 1, and 1 sub-sw
      +                          itches
  3282                           ; Switch size 1, requested type "simple"
  3283                           ; Number of cases is 1, Range of values is 0 to 0
  3284                           ; switch strategies available:
  3285                           ; Name         Instructions Cycles
  3286                           ; simple_byte            4     3 (average)
  3287                           ;	Chosen strategy is simple_byte
  3288   00185A  5013               	movf	(??_lcd_4bit_set_cursor+1)^0,w,c
  3289   00185C  0A00               	xorlw	0	; case 0
  3290   00185E  B4D8               	btfsc	status,2,c
  3291   001860  EF34  F00C         	goto	l5010
  3292   001864  EF47  F00C         	goto	l4100
  3293   001868                     l5010:
  3294                           
  3295                           ; Switch size 1, requested type "simple"
  3296                           ; Number of cases is 4, Range of values is 1 to 4
  3297                           ; switch strategies available:
  3298                           ; Name         Instructions Cycles
  3299                           ; simple_byte           13     7 (average)
  3300                           ;	Chosen strategy is simple_byte
  3301   001868  5012               	movf	??_lcd_4bit_set_cursor^0,w,c
  3302   00186A  0A01               	xorlw	1	; case 1
  3303   00186C  B4D8               	btfsc	status,2,c
  3304   00186E  EF02  F00C         	goto	l4088
  3305   001872  0A03               	xorlw	3	; case 2
  3306   001874  B4D8               	btfsc	status,2,c
  3307   001876  EF0C  F00C         	goto	l4090
  3308   00187A  0A01               	xorlw	1	; case 3
  3309   00187C  B4D8               	btfsc	status,2,c
  3310   00187E  EF16  F00C         	goto	l4092
  3311   001882  0A07               	xorlw	7	; case 4
  3312   001884  B4D8               	btfsc	status,2,c
  3313   001886  EF20  F00C         	goto	l4094
  3314   00188A  EF47  F00C         	goto	l4100
  3315   00188E                     l4100:
  3316                           
  3317                           ;ECU_layer/LCD/LCD.c: 552:     return ret;
  3318   00188E  5014               	movf	lcd_4bit_set_cursor@ret^0,w,c
  3319   001890  0012               	return		;funcret
  3320   001892                     __end_of_lcd_4bit_set_cursor:
  3321                           	callstack 0
  3322                           
  3323 ;; *************** function _lcd_4bit_send_string *****************
  3324 ;; Defined at:
  3325 ;;		line 135 in file "ECU_layer/LCD/LCD.c"
  3326 ;; Parameters:    Size  Location     Type
  3327 ;;  lcd             1   14[COMRAM] PTR const struct .
  3328 ;;		 -> lcd(6), 
  3329 ;;  str             2   15[COMRAM] PTR unsigned char 
  3330 ;;		 -> STR_7(18), STR_6(15), STR_5(16), STR_4(11), 
  3331 ;;		 -> STR_3(6), STR_2(8), tries_txt(4), STR_1(8), 
  3332 ;; Auto vars:     Size  Location     Type
  3333 ;;  ret             1   17[COMRAM] unsigned char 
  3334 ;; Return value:  Size  Location     Type
  3335 ;;                  1    wreg      unsigned char 
  3336 ;; Registers used:
  3337 ;;		wreg, fsr0l, fsr0h, fsr2l, fsr2h, status,2, status,0, tblptrl, tblptrh, tblptru, prodl, prodh, cstack
  3338 ;; Tracked objects:
  3339 ;;		On entry : 0/0
  3340 ;;		On exit  : 0/0
  3341 ;;		Unchanged: 0/0
  3342 ;; Data sizes:     COMRAM   BANK0   BANK1   BANK2   BANK3   BANK4   BANK5   BANK6   BANK7   BANK8   BANK9  BANK10  BANK1
      +1  BANK12  BANK13  BANK14  BANK15
  3343 ;;      Params:         3       0       0       0       0       0       0       0       0       0       0       0       
      +0       0       0       0       0
  3344 ;;      Locals:         1       0       0       0       0       0       0       0       0       0       0       0       
      +0       0       0       0       0
  3345 ;;      Temps:          0       0       0       0       0       0       0       0       0       0       0       0       
      +0       0       0       0       0
  3346 ;;      Totals:         4       0       0       0       0       0       0       0       0       0       0       0       
      +0       0       0       0       0
  3347 ;;Total ram usage:        4 bytes
  3348 ;; Hardware stack levels used: 1
  3349 ;; Hardware stack levels required when called: 3
  3350 ;; This function calls:
  3351 ;;		_lcd_4bit_send_char_data
  3352 ;; This function is called by:
  3353 ;;		_set_password
  3354 ;;		_enter_password
  3355 ;;		_lcd_4bit_send_string_pos
  3356 ;; This function uses a non-reentrant model
  3357 ;;
  3358                           
  3359                           	psect	text21
  3360   001C10                     __ptext21:
  3361                           	callstack 0
  3362   001C10                     _lcd_4bit_send_string:
  3363                           	callstack 26
  3364   001C10                     
  3365                           ;ECU_layer/LCD/LCD.c: 135: Std_ReturnType lcd_4bit_send_string(const lcd_4bit_t* lcd, ui
      +                          nt8* str);ECU_layer/LCD/LCD.c: 136: {;ECU_layer/LCD/LCD.c: 137:     Std_ReturnType ret =
      +                           (Std_ReturnType) 0x01;
  3366   001C10  0E01               	movlw	1
  3367   001C12  6E12               	movwf	lcd_4bit_send_string@ret^0,c
  3368                           
  3369                           ;ECU_layer/LCD/LCD.c: 138:     if(lcd == ((void*)0) || str == ((void*)0))
  3370   001C14  500F               	movf	lcd_4bit_send_string@lcd^0,w,c
  3371   001C16  B4D8               	btfsc	status,2,c
  3372   001C18  EF10  F00E         	goto	u3751
  3373   001C1C  EF12  F00E         	goto	u3750
  3374   001C20                     u3751:
  3375   001C20  EF1B  F00E         	goto	l4230
  3376   001C24                     u3750:
  3377   001C24  5010               	movf	lcd_4bit_send_string@str^0,w,c
  3378   001C26  1011               	iorwf	(lcd_4bit_send_string@str+1)^0,w,c
  3379   001C28  A4D8               	btfss	status,2,c
  3380   001C2A  EF19  F00E         	goto	u3761
  3381   001C2E  EF1B  F00E         	goto	u3760
  3382   001C32                     u3761:
  3383   001C32  EF38  F00E         	goto	l4236
  3384   001C36                     u3760:
  3385   001C36                     l4230:
  3386                           
  3387                           ;ECU_layer/LCD/LCD.c: 139:     {;ECU_layer/LCD/LCD.c: 140:         ret = (Std_ReturnType
      +                          ) 0x00;
  3388   001C36  0E00               	movlw	0
  3389   001C38  6E12               	movwf	lcd_4bit_send_string@ret^0,c
  3390                           
  3391                           ;ECU_layer/LCD/LCD.c: 141:     }
  3392   001C3A  EF51  F00E         	goto	l4238
  3393   001C3E                     l4232:
  3394                           
  3395                           ;ECU_layer/LCD/LCD.c: 145:         {;ECU_layer/LCD/LCD.c: 146:             ret = lcd_4bi
      +                          t_send_char_data(lcd, *str++);
  3396   001C3E  C00F  F00C         	movff	lcd_4bit_send_string@lcd,lcd_4bit_send_char_data@lcd
  3397   001C42  C010  FFF6         	movff	lcd_4bit_send_string@str,tblptrl
  3398   001C46  C011  FFF7         	movff	lcd_4bit_send_string@str+1,tblptrh
  3399   001C4A  0E00               	movlw	low (__smallconst shr (0+16))
  3400   001C4C  6EF8               	movwf	tblptru,c
  3401   001C4E  0E0F               	movlw	(high __ramtop+-1)
  3402   001C50  64F7               	cpfsgt	tblptrh,c
  3403   001C52  D003               	bra	u3777
  3404   001C54  0008               	tblrd		*
  3405   001C56  50F5               	movf	tablat,w,c
  3406   001C58  D005               	bra	u3770
  3407   001C5A                     u3777:
  3408   001C5A  CFF6 FFE9          	movff	tblptrl,fsr0l
  3409   001C5E  CFF7 FFEA          	movff	tblptrh,fsr0h
  3410   001C62  50EF               	movf	indf0,w,c
  3411   001C64                     u3770:
  3412   001C64  6E0D               	movwf	lcd_4bit_send_char_data@data^0,c
  3413   001C66  ECC3  F00F         	call	_lcd_4bit_send_char_data	;wreg free
  3414   001C6A  6E12               	movwf	lcd_4bit_send_string@ret^0,c
  3415   001C6C  4A10               	infsnz	lcd_4bit_send_string@str^0,f,c
  3416   001C6E  2A11               	incf	(lcd_4bit_send_string@str+1)^0,f,c
  3417   001C70                     l4236:
  3418                           
  3419                           ;ECU_layer/LCD/LCD.c: 144:         while(*str)
  3420   001C70  C010  FFF6         	movff	lcd_4bit_send_string@str,tblptrl
  3421   001C74  C011  FFF7         	movff	lcd_4bit_send_string@str+1,tblptrh
  3422   001C78  0E00               	movlw	low (__smallconst shr (0+16))
  3423   001C7A  6EF8               	movwf	tblptru,c
  3424   001C7C  0E0F               	movlw	(high __ramtop+-1)
  3425   001C7E  64F7               	cpfsgt	tblptrh,c
  3426   001C80  D003               	bra	u3787
  3427   001C82  0008               	tblrd		*
  3428   001C84  50F5               	movf	tablat,w,c
  3429   001C86  D005               	bra	u3780
  3430   001C88                     u3787:
  3431   001C88  CFF6 FFE9          	movff	tblptrl,fsr0l
  3432   001C8C  CFF7 FFEA          	movff	tblptrh,fsr0h
  3433   001C90  50EF               	movf	indf0,w,c
  3434   001C92                     u3780:
  3435   001C92  0900               	iorlw	0
  3436   001C94  A4D8               	btfss	status,2,c
  3437   001C96  EF4F  F00E         	goto	u3791
  3438   001C9A  EF51  F00E         	goto	u3790
  3439   001C9E                     u3791:
  3440   001C9E  EF1F  F00E         	goto	l4232
  3441   001CA2                     u3790:
  3442   001CA2                     l4238:
  3443                           
  3444                           ;ECU_layer/LCD/LCD.c: 149:     return ret;
  3445   001CA2  5012               	movf	lcd_4bit_send_string@ret^0,w,c
  3446   001CA4  0012               	return		;funcret
  3447   001CA6                     __end_of_lcd_4bit_send_string:
  3448                           	callstack 0
  3449                           
  3450 ;; *************** function _lcd_4bit_send_char_data *****************
  3451 ;; Defined at:
  3452 ;;		line 86 in file "ECU_layer/LCD/LCD.c"
  3453 ;; Parameters:    Size  Location     Type
  3454 ;;  lcd             1   11[COMRAM] PTR const struct .
  3455 ;;		 -> lcd(6), 
  3456 ;;  data            1   12[COMRAM] unsigned char 
  3457 ;; Auto vars:     Size  Location     Type
  3458 ;;  ret             1   13[COMRAM] unsigned char 
  3459 ;; Return value:  Size  Location     Type
  3460 ;;                  1    wreg      unsigned char 
  3461 ;; Registers used:
  3462 ;;		wreg, fsr2l, fsr2h, status,2, status,0, prodl, prodh, cstack
  3463 ;; Tracked objects:
  3464 ;;		On entry : 0/0
  3465 ;;		On exit  : 0/0
  3466 ;;		Unchanged: 0/0
  3467 ;; Data sizes:     COMRAM   BANK0   BANK1   BANK2   BANK3   BANK4   BANK5   BANK6   BANK7   BANK8   BANK9  BANK10  BANK1
      +1  BANK12  BANK13  BANK14  BANK15
  3468 ;;      Params:         2       0       0       0       0       0       0       0       0       0       0       0       
      +0       0       0       0       0
  3469 ;;      Locals:         1       0       0       0       0       0       0       0       0       0       0       0       
      +0       0       0       0       0
  3470 ;;      Temps:          0       0       0       0       0       0       0       0       0       0       0       0       
      +0       0       0       0       0
  3471 ;;      Totals:         3       0       0       0       0       0       0       0       0       0       0       0       
      +0       0       0       0       0
  3472 ;;Total ram usage:        3 bytes
  3473 ;; Hardware stack levels used: 1
  3474 ;; Hardware stack levels required when called: 2
  3475 ;; This function calls:
  3476 ;;		_gpio_pin_write_logic
  3477 ;;		_lcd_4bit_send_enable_signal
  3478 ;;		_lcd_send_4bits
  3479 ;; This function is called by:
  3480 ;;		_lcd_4bit_send_char_data_pos
  3481 ;;		_lcd_4bit_send_string
  3482 ;;		_lcd_4bit_send_custom_character
  3483 ;; This function uses a non-reentrant model
  3484 ;;
  3485                           
  3486                           	psect	text22
  3487   001F86                     __ptext22:
  3488                           	callstack 0
  3489   001F86                     _lcd_4bit_send_char_data:
  3490                           	callstack 25
  3491   001F86                     
  3492                           ;ECU_layer/LCD/LCD.c: 89:     if(lcd == ((void*)0))
  3493   001F86  500C               	movf	lcd_4bit_send_char_data@lcd^0,w,c
  3494   001F88  A4D8               	btfss	status,2,c
  3495   001F8A  EFC9  F00F         	goto	u3561
  3496   001F8E  EFCB  F00F         	goto	u3560
  3497   001F92                     u3561:
  3498   001F92  EFCF  F00F         	goto	l4070
  3499   001F96                     u3560:
  3500   001F96                     
  3501                           ;ECU_layer/LCD/LCD.c: 90:     {;ECU_layer/LCD/LCD.c: 91:         ret = (Std_ReturnType) 
      +                          0x00;
  3502   001F96  0E00               	movlw	0
  3503   001F98  6E0E               	movwf	lcd_4bit_send_char_data@ret^0,c
  3504                           
  3505                           ;ECU_layer/LCD/LCD.c: 92:     }
  3506   001F9A  EFEF  F00F         	goto	l4072
  3507   001F9E                     l4070:
  3508                           
  3509                           ;ECU_layer/LCD/LCD.c: 94:     {;ECU_layer/LCD/LCD.c: 95:         ret = gpio_pin_write_lo
      +                          gic(&(lcd->lcd_rs), GPIO_HIGH);
  3510   001F9E  C00C  F001         	movff	lcd_4bit_send_char_data@lcd,gpio_pin_write_logic@_pin_config
  3511   001FA2  0E01               	movlw	1
  3512   001FA4  6E02               	movwf	gpio_pin_write_logic@logic^0,c
  3513   001FA6  ECA3  F009         	call	_gpio_pin_write_logic	;wreg free
  3514   001FAA  6E0E               	movwf	lcd_4bit_send_char_data@ret^0,c
  3515                           
  3516                           ;ECU_layer/LCD/LCD.c: 96:         ret = lcd_send_4bits(lcd, data >> 4);
  3517   001FAC  C00C  F009         	movff	lcd_4bit_send_char_data@lcd,lcd_send_4bits@lcd
  3518   001FB0  380D               	swapf	lcd_4bit_send_char_data@data^0,w,c
  3519   001FB2  0B0F               	andlw	15
  3520   001FB4  6E0A               	movwf	lcd_send_4bits@data_command^0,c
  3521   001FB6  ECCD  F00E         	call	_lcd_send_4bits	;wreg free
  3522   001FBA  6E0E               	movwf	lcd_4bit_send_char_data@ret^0,c
  3523                           
  3524                           ;ECU_layer/LCD/LCD.c: 97:         ret = lcd_4bit_send_enable_signal(lcd);
  3525   001FBC  C00C  F009         	movff	lcd_4bit_send_char_data@lcd,lcd_4bit_send_enable_signal@lcd
  3526   001FC0  EC8D  F010         	call	_lcd_4bit_send_enable_signal	;wreg free
  3527   001FC4  6E0E               	movwf	lcd_4bit_send_char_data@ret^0,c
  3528                           
  3529                           ;ECU_layer/LCD/LCD.c: 98:         ret = lcd_send_4bits(lcd, data);
  3530   001FC6  C00C  F009         	movff	lcd_4bit_send_char_data@lcd,lcd_send_4bits@lcd
  3531   001FCA  C00D  F00A         	movff	lcd_4bit_send_char_data@data,lcd_send_4bits@data_command
  3532   001FCE  ECCD  F00E         	call	_lcd_send_4bits	;wreg free
  3533   001FD2  6E0E               	movwf	lcd_4bit_send_char_data@ret^0,c
  3534                           
  3535                           ;ECU_layer/LCD/LCD.c: 99:         ret = lcd_4bit_send_enable_signal(lcd);
  3536   001FD4  C00C  F009         	movff	lcd_4bit_send_char_data@lcd,lcd_4bit_send_enable_signal@lcd
  3537   001FD8  EC8D  F010         	call	_lcd_4bit_send_enable_signal	;wreg free
  3538   001FDC  6E0E               	movwf	lcd_4bit_send_char_data@ret^0,c
  3539   001FDE                     l4072:
  3540                           
  3541                           ;ECU_layer/LCD/LCD.c: 102:     return ret;
  3542   001FDE  500E               	movf	lcd_4bit_send_char_data@ret^0,w,c
  3543   001FE0  0012               	return		;funcret
  3544   001FE2                     __end_of_lcd_4bit_send_char_data:
  3545                           	callstack 0
  3546                           
  3547 ;; *************** function _clear_lcd *****************
  3548 ;; Defined at:
  3549 ;;		line 154 in file "application.c"
  3550 ;; Parameters:    Size  Location     Type
  3551 ;;		None
  3552 ;; Auto vars:     Size  Location     Type
  3553 ;;		None
  3554 ;; Return value:  Size  Location     Type
  3555 ;;                  1    wreg      void 
  3556 ;; Registers used:
  3557 ;;		wreg, fsr2l, fsr2h, status,2, status,0, prodl, prodh, cstack
  3558 ;; Tracked objects:
  3559 ;;		On entry : 0/0
  3560 ;;		On exit  : 0/0
  3561 ;;		Unchanged: 0/0
  3562 ;; Data sizes:     COMRAM   BANK0   BANK1   BANK2   BANK3   BANK4   BANK5   BANK6   BANK7   BANK8   BANK9  BANK10  BANK1
      +1  BANK12  BANK13  BANK14  BANK15
  3563 ;;      Params:         0       0       0       0       0       0       0       0       0       0       0       0       
      +0       0       0       0       0
  3564 ;;      Locals:         0       0       0       0       0       0       0       0       0       0       0       0       
      +0       0       0       0       0
  3565 ;;      Temps:          0       0       0       0       0       0       0       0       0       0       0       0       
      +0       0       0       0       0
  3566 ;;      Totals:         0       0       0       0       0       0       0       0       0       0       0       0       
      +0       0       0       0       0
  3567 ;;Total ram usage:        0 bytes
  3568 ;; Hardware stack levels used: 1
  3569 ;; Hardware stack levels required when called: 3
  3570 ;; This function calls:
  3571 ;;		_lcd_4bit_send_command
  3572 ;; This function is called by:
  3573 ;;		_main
  3574 ;;		_compare
  3575 ;;		_set_password
  3576 ;; This function uses a non-reentrant model
  3577 ;;
  3578                           
  3579                           	psect	text23
  3580   002248                     __ptext23:
  3581                           	callstack 0
  3582   002248                     _clear_lcd:
  3583                           	callstack 26
  3584   002248                     
  3585                           ;application.c: 156:     lcd_4bit_send_command(&lcd, 0X01);
  3586   002248  0E77               	movlw	low _lcd
  3587   00224A  6E0C               	movwf	lcd_4bit_send_command@lcd^0,c
  3588   00224C  0E01               	movlw	1
  3589   00224E  6E0D               	movwf	lcd_4bit_send_command@command^0,c
  3590   002250  ECF1  F00F         	call	_lcd_4bit_send_command	;wreg free
  3591   002254                     
  3592                           ;application.c: 157:     _delay((unsigned long)((100)*(4000000UL/4000000.0)));
  3593   002254  0E21               	movlw	33
  3594   002256                     u4747:
  3595   002256  2EE8               	decfsz	wreg,f,c
  3596   002258  D7FE               	bra	u4747
  3597   00225A  0000               	nop	
  3598   00225C  0012               	return		;funcret
  3599   00225E                     __end_of_clear_lcd:
  3600                           	callstack 0
  3601                           
  3602 ;; *************** function _application_initialize *****************
  3603 ;; Defined at:
  3604 ;;		line 62 in file "application.c"
  3605 ;; Parameters:    Size  Location     Type
  3606 ;;		None
  3607 ;; Auto vars:     Size  Location     Type
  3608 ;;		None
  3609 ;; Return value:  Size  Location     Type
  3610 ;;                  1    wreg      void 
  3611 ;; Registers used:
  3612 ;;		wreg, fsr2l, fsr2h, status,2, status,0, prodl, prodh, cstack
  3613 ;; Tracked objects:
  3614 ;;		On entry : 0/0
  3615 ;;		On exit  : 0/0
  3616 ;;		Unchanged: 0/0
  3617 ;; Data sizes:     COMRAM   BANK0   BANK1   BANK2   BANK3   BANK4   BANK5   BANK6   BANK7   BANK8   BANK9  BANK10  BANK1
      +1  BANK12  BANK13  BANK14  BANK15
  3618 ;;      Params:         0       0       0       0       0       0       0       0       0       0       0       0       
      +0       0       0       0       0
  3619 ;;      Locals:         0       0       0       0       0       0       0       0       0       0       0       0       
      +0       0       0       0       0
  3620 ;;      Temps:          0       0       0       0       0       0       0       0       0       0       0       0       
      +0       0       0       0       0
  3621 ;;      Totals:         0       0       0       0       0       0       0       0       0       0       0       0       
      +0       0       0       0       0
  3622 ;;Total ram usage:        0 bytes
  3623 ;; Hardware stack levels used: 1
  3624 ;; Hardware stack levels required when called: 5
  3625 ;; This function calls:
  3626 ;;		_ecu_layer_initailize
  3627 ;; This function is called by:
  3628 ;;		_main
  3629 ;; This function uses a non-reentrant model
  3630 ;;
  3631                           
  3632                           	psect	text24
  3633   00227A                     __ptext24:
  3634                           	callstack 0
  3635   00227A                     _application_initialize:
  3636                           	callstack 25
  3637   00227A                     
  3638                           ;application.c: 63:     ecu_layer_initailize();
  3639   00227A  EC2F  F011         	call	_ecu_layer_initailize	;wreg free
  3640   00227E  0012               	return		;funcret
  3641   002280                     __end_of_application_initialize:
  3642                           	callstack 0
  3643                           
  3644 ;; *************** function _ecu_layer_initailize *****************
  3645 ;; Defined at:
  3646 ;;		line 75 in file "ECU_layer/ecu_layer_init.c"
  3647 ;; Parameters:    Size  Location     Type
  3648 ;;		None
  3649 ;; Auto vars:     Size  Location     Type
  3650 ;;  ret             1    0        unsigned char 
  3651 ;; Return value:  Size  Location     Type
  3652 ;;                  1    wreg      void 
  3653 ;; Registers used:
  3654 ;;		wreg, fsr2l, fsr2h, status,2, status,0, prodl, prodh, cstack
  3655 ;; Tracked objects:
  3656 ;;		On entry : 0/0
  3657 ;;		On exit  : 0/0
  3658 ;;		Unchanged: 0/0
  3659 ;; Data sizes:     COMRAM   BANK0   BANK1   BANK2   BANK3   BANK4   BANK5   BANK6   BANK7   BANK8   BANK9  BANK10  BANK1
      +1  BANK12  BANK13  BANK14  BANK15
  3660 ;;      Params:         0       0       0       0       0       0       0       0       0       0       0       0       
      +0       0       0       0       0
  3661 ;;      Locals:         0       0       0       0       0       0       0       0       0       0       0       0       
      +0       0       0       0       0
  3662 ;;      Temps:          0       0       0       0       0       0       0       0       0       0       0       0       
      +0       0       0       0       0
  3663 ;;      Totals:         0       0       0       0       0       0       0       0       0       0       0       0       
      +0       0       0       0       0
  3664 ;;Total ram usage:        0 bytes
  3665 ;; Hardware stack levels used: 1
  3666 ;; Hardware stack levels required when called: 4
  3667 ;; This function calls:
  3668 ;;		_keypad_initialize
  3669 ;;		_lcd_4bit_initialize
  3670 ;; This function is called by:
  3671 ;;		_application_initialize
  3672 ;; This function uses a non-reentrant model
  3673 ;;
  3674                           
  3675                           	psect	text25
  3676   00225E                     __ptext25:
  3677                           	callstack 0
  3678   00225E                     _ecu_layer_initailize:
  3679                           	callstack 25
  3680   00225E  0E77               	movlw	low _lcd
  3681   002260  6E0F               	movwf	lcd_4bit_initialize@lcd^0,c
  3682   002262  EC2B  F00A         	call	_lcd_4bit_initialize	;wreg free
  3683   002266  0E6F               	movlw	low _keypad
  3684   002268  6E0C               	movwf	keypad_initialize@kpd^0,c
  3685   00226A  EC35  F00F         	call	_keypad_initialize	;wreg free
  3686   00226E  0012               	return		;funcret
  3687   002270                     __end_of_ecu_layer_initailize:
  3688                           	callstack 0
  3689                           
  3690 ;; *************** function _lcd_4bit_initialize *****************
  3691 ;; Defined at:
  3692 ;;		line 23 in file "ECU_layer/LCD/LCD.c"
  3693 ;; Parameters:    Size  Location     Type
  3694 ;;  lcd             1   14[COMRAM] PTR const struct .
  3695 ;;		 -> lcd(6), 
  3696 ;; Auto vars:     Size  Location     Type
  3697 ;;  i               1   16[COMRAM] unsigned char 
  3698 ;;  ret             1   17[COMRAM] unsigned char 
  3699 ;; Return value:  Size  Location     Type
  3700 ;;                  1    wreg      unsigned char 
  3701 ;; Registers used:
  3702 ;;		wreg, fsr2l, fsr2h, status,2, status,0, prodl, prodh, cstack
  3703 ;; Tracked objects:
  3704 ;;		On entry : 0/0
  3705 ;;		On exit  : 0/0
  3706 ;;		Unchanged: 0/0
  3707 ;; Data sizes:     COMRAM   BANK0   BANK1   BANK2   BANK3   BANK4   BANK5   BANK6   BANK7   BANK8   BANK9  BANK10  BANK1
      +1  BANK12  BANK13  BANK14  BANK15
  3708 ;;      Params:         1       0       0       0       0       0       0       0       0       0       0       0       
      +0       0       0       0       0
  3709 ;;      Locals:         2       0       0       0       0       0       0       0       0       0       0       0       
      +0       0       0       0       0
  3710 ;;      Temps:          1       0       0       0       0       0       0       0       0       0       0       0       
      +0       0       0       0       0
  3711 ;;      Totals:         4       0       0       0       0       0       0       0       0       0       0       0       
      +0       0       0       0       0
  3712 ;;Total ram usage:        4 bytes
  3713 ;; Hardware stack levels used: 1
  3714 ;; Hardware stack levels required when called: 3
  3715 ;; This function calls:
  3716 ;;		_gpio_pin_initialize
  3717 ;;		_lcd_4bit_send_command
  3718 ;; This function is called by:
  3719 ;;		_ecu_layer_initailize
  3720 ;; This function uses a non-reentrant model
  3721 ;;
  3722                           
  3723                           	psect	text26
  3724   001456                     __ptext26:
  3725                           	callstack 0
  3726   001456                     _lcd_4bit_initialize:
  3727                           	callstack 25
  3728   001456                     
  3729                           ;ECU_layer/LCD/LCD.c: 26:     if(lcd == ((void*)0))
  3730   001456  500F               	movf	lcd_4bit_initialize@lcd^0,w,c
  3731   001458  A4D8               	btfss	status,2,c
  3732   00145A  EF31  F00A         	goto	u3801
  3733   00145E  EF33  F00A         	goto	u3800
  3734   001462                     u3801:
  3735   001462  EF37  F00A         	goto	l4246
  3736   001466                     u3800:
  3737   001466                     
  3738                           ;ECU_layer/LCD/LCD.c: 27:     {;ECU_layer/LCD/LCD.c: 28:         ret = (Std_ReturnType) 
      +                          0x00;
  3739   001466  0E00               	movlw	0
  3740   001468  6E12               	movwf	lcd_4bit_initialize@ret^0,c
  3741                           
  3742                           ;ECU_layer/LCD/LCD.c: 29:     }
  3743   00146A  EF9C  F00A         	goto	l4282
  3744   00146E                     l4246:
  3745                           
  3746                           ;ECU_layer/LCD/LCD.c: 31:     {;ECU_layer/LCD/LCD.c: 32:         uint8 i;;ECU_layer/LCD/
      +                          LCD.c: 33:         ret = gpio_pin_initialize(&(lcd->lcd_rs));
  3747   00146E  C00F  F009         	movff	lcd_4bit_initialize@lcd,gpio_pin_initialize@_pin_config
  3748   001472  EC66  F00F         	call	_gpio_pin_initialize	;wreg free
  3749   001476  6E12               	movwf	lcd_4bit_initialize@ret^0,c
  3750                           
  3751                           ;ECU_layer/LCD/LCD.c: 34:         ret = gpio_pin_initialize(&(lcd->lcd_en));
  3752   001478  280F               	incf	lcd_4bit_initialize@lcd^0,w,c
  3753   00147A  6E09               	movwf	gpio_pin_initialize@_pin_config^0,c
  3754   00147C  EC66  F00F         	call	_gpio_pin_initialize	;wreg free
  3755   001480  6E12               	movwf	lcd_4bit_initialize@ret^0,c
  3756   001482                     
  3757                           ;ECU_layer/LCD/LCD.c: 35:         for(i = 0; i < 4; i++)
  3758   001482  0E00               	movlw	0
  3759   001484  6E11               	movwf	lcd_4bit_initialize@i^0,c
  3760   001486                     l4254:
  3761   001486  500F               	movf	lcd_4bit_initialize@lcd^0,w,c
  3762   001488  2411               	addwf	lcd_4bit_initialize@i^0,w,c
  3763   00148A  0F02               	addlw	2
  3764   00148C  6E09               	movwf	gpio_pin_initialize@_pin_config^0,c
  3765   00148E  EC66  F00F         	call	_gpio_pin_initialize	;wreg free
  3766   001492                     
  3767                           ;ECU_layer/LCD/LCD.c: 38:         }
  3768   001492  2A11               	incf	lcd_4bit_initialize@i^0,f,c
  3769   001494  0E03               	movlw	3
  3770   001496  6411               	cpfsgt	lcd_4bit_initialize@i^0,c
  3771   001498  EF50  F00A         	goto	u3811
  3772   00149C  EF52  F00A         	goto	u3810
  3773   0014A0                     u3811:
  3774   0014A0  EF43  F00A         	goto	l4254
  3775   0014A4                     u3810:
  3776   0014A4                     
  3777                           ;ECU_layer/LCD/LCD.c: 39:         _delay((unsigned long)((20)*(4000000UL/4000.0)));
  3778   0014A4  0E1A               	movlw	26
  3779   0014A6  6E10               	movwf	??_lcd_4bit_initialize^0,c
  3780   0014A8  0EF8               	movlw	248
  3781   0014AA                     u4757:
  3782   0014AA  2EE8               	decfsz	wreg,f,c
  3783   0014AC  D7FE               	bra	u4757
  3784   0014AE  2E10               	decfsz	??_lcd_4bit_initialize^0,f,c
  3785   0014B0  D7FC               	bra	u4757
  3786   0014B2  D000               	nop2	
  3787   0014B4  C00F  F00C         	movff	lcd_4bit_initialize@lcd,lcd_4bit_send_command@lcd
  3788   0014B8  0E38               	movlw	56
  3789   0014BA  6E0D               	movwf	lcd_4bit_send_command@command^0,c
  3790   0014BC  ECF1  F00F         	call	_lcd_4bit_send_command	;wreg free
  3791   0014C0                     
  3792                           ;ECU_layer/LCD/LCD.c: 41:         _delay((unsigned long)((5)*(4000000UL/4000.0)));
  3793   0014C0  0E07               	movlw	7
  3794   0014C2  6E10               	movwf	??_lcd_4bit_initialize^0,c
  3795   0014C4  0E7D               	movlw	125
  3796   0014C6                     u4767:
  3797   0014C6  2EE8               	decfsz	wreg,f,c
  3798   0014C8  D7FE               	bra	u4767
  3799   0014CA  2E10               	decfsz	??_lcd_4bit_initialize^0,f,c
  3800   0014CC  D7FC               	bra	u4767
  3801   0014CE  0000               	nop	
  3802   0014D0  C00F  F00C         	movff	lcd_4bit_initialize@lcd,lcd_4bit_send_command@lcd
  3803   0014D4  0E38               	movlw	56
  3804   0014D6  6E0D               	movwf	lcd_4bit_send_command@command^0,c
  3805   0014D8  ECF1  F00F         	call	_lcd_4bit_send_command	;wreg free
  3806   0014DC                     
  3807                           ;ECU_layer/LCD/LCD.c: 43:         _delay((unsigned long)((150)*(4000000UL/4000000.0)));
  3808   0014DC  0E32               	movlw	50
  3809   0014DE                     u4777:
  3810   0014DE  2EE8               	decfsz	wreg,f,c
  3811   0014E0  D7FE               	bra	u4777
  3812   0014E2  C00F  F00C         	movff	lcd_4bit_initialize@lcd,lcd_4bit_send_command@lcd
  3813   0014E6  0E38               	movlw	56
  3814   0014E8  6E0D               	movwf	lcd_4bit_send_command@command^0,c
  3815   0014EA  ECF1  F00F         	call	_lcd_4bit_send_command	;wreg free
  3816   0014EE  C00F  F00C         	movff	lcd_4bit_initialize@lcd,lcd_4bit_send_command@lcd
  3817   0014F2  0E01               	movlw	1
  3818   0014F4  6E0D               	movwf	lcd_4bit_send_command@command^0,c
  3819   0014F6  ECF1  F00F         	call	_lcd_4bit_send_command	;wreg free
  3820   0014FA  C00F  F00C         	movff	lcd_4bit_initialize@lcd,lcd_4bit_send_command@lcd
  3821   0014FE  0E02               	movlw	2
  3822   001500  6E0D               	movwf	lcd_4bit_send_command@command^0,c
  3823   001502  ECF1  F00F         	call	_lcd_4bit_send_command	;wreg free
  3824   001506  C00F  F00C         	movff	lcd_4bit_initialize@lcd,lcd_4bit_send_command@lcd
  3825   00150A  0E06               	movlw	6
  3826   00150C  6E0D               	movwf	lcd_4bit_send_command@command^0,c
  3827   00150E  ECF1  F00F         	call	_lcd_4bit_send_command	;wreg free
  3828   001512  C00F  F00C         	movff	lcd_4bit_initialize@lcd,lcd_4bit_send_command@lcd
  3829   001516  0E0C               	movlw	12
  3830   001518  6E0D               	movwf	lcd_4bit_send_command@command^0,c
  3831   00151A  ECF1  F00F         	call	_lcd_4bit_send_command	;wreg free
  3832   00151E  C00F  F00C         	movff	lcd_4bit_initialize@lcd,lcd_4bit_send_command@lcd
  3833   001522  0E28               	movlw	40
  3834   001524  6E0D               	movwf	lcd_4bit_send_command@command^0,c
  3835   001526  ECF1  F00F         	call	_lcd_4bit_send_command	;wreg free
  3836   00152A                     
  3837                           ;ECU_layer/LCD/LCD.c: 51:         ret = lcd_4bit_send_command(lcd, 0x80);
  3838   00152A  C00F  F00C         	movff	lcd_4bit_initialize@lcd,lcd_4bit_send_command@lcd
  3839   00152E  0E80               	movlw	128
  3840   001530  6E0D               	movwf	lcd_4bit_send_command@command^0,c
  3841   001532  ECF1  F00F         	call	_lcd_4bit_send_command	;wreg free
  3842   001536  6E12               	movwf	lcd_4bit_initialize@ret^0,c
  3843   001538                     l4282:
  3844                           
  3845                           ;ECU_layer/LCD/LCD.c: 53:     return ret;
  3846   001538  5012               	movf	lcd_4bit_initialize@ret^0,w,c
  3847   00153A  0012               	return		;funcret
  3848   00153C                     __end_of_lcd_4bit_initialize:
  3849                           	callstack 0
  3850                           
  3851 ;; *************** function _lcd_4bit_send_command *****************
  3852 ;; Defined at:
  3853 ;;		line 62 in file "ECU_layer/LCD/LCD.c"
  3854 ;; Parameters:    Size  Location     Type
  3855 ;;  lcd             1   11[COMRAM] PTR const struct .
  3856 ;;		 -> lcd(6), 
  3857 ;;  command         1   12[COMRAM] unsigned char 
  3858 ;; Auto vars:     Size  Location     Type
  3859 ;;  ret             1   13[COMRAM] unsigned char 
  3860 ;; Return value:  Size  Location     Type
  3861 ;;                  1    wreg      unsigned char 
  3862 ;; Registers used:
  3863 ;;		wreg, fsr2l, fsr2h, status,2, status,0, prodl, prodh, cstack
  3864 ;; Tracked objects:
  3865 ;;		On entry : 0/0
  3866 ;;		On exit  : 0/0
  3867 ;;		Unchanged: 0/0
  3868 ;; Data sizes:     COMRAM   BANK0   BANK1   BANK2   BANK3   BANK4   BANK5   BANK6   BANK7   BANK8   BANK9  BANK10  BANK1
      +1  BANK12  BANK13  BANK14  BANK15
  3869 ;;      Params:         2       0       0       0       0       0       0       0       0       0       0       0       
      +0       0       0       0       0
  3870 ;;      Locals:         1       0       0       0       0       0       0       0       0       0       0       0       
      +0       0       0       0       0
  3871 ;;      Temps:          0       0       0       0       0       0       0       0       0       0       0       0       
      +0       0       0       0       0
  3872 ;;      Totals:         3       0       0       0       0       0       0       0       0       0       0       0       
      +0       0       0       0       0
  3873 ;;Total ram usage:        3 bytes
  3874 ;; Hardware stack levels used: 1
  3875 ;; Hardware stack levels required when called: 2
  3876 ;; This function calls:
  3877 ;;		_gpio_pin_write_logic
  3878 ;;		_lcd_4bit_send_enable_signal
  3879 ;;		_lcd_send_4bits
  3880 ;; This function is called by:
  3881 ;;		_main
  3882 ;;		_clear_lcd
  3883 ;;		_lcd_4bit_initialize
  3884 ;;		_lcd_4bit_set_cursor
  3885 ;;		_lcd_4bit_send_custom_character
  3886 ;; This function uses a non-reentrant model
  3887 ;;
  3888                           
  3889                           	psect	text27
  3890   001FE2                     __ptext27:
  3891                           	callstack 0
  3892   001FE2                     _lcd_4bit_send_command:
  3893                           	callstack 24
  3894   001FE2                     
  3895                           ;ECU_layer/LCD/LCD.c: 65:     if(lcd == ((void*)0))
  3896   001FE2  500C               	movf	lcd_4bit_send_command@lcd^0,w,c
  3897   001FE4  A4D8               	btfss	status,2,c
  3898   001FE6  EFF7  F00F         	goto	u3451
  3899   001FEA  EFF9  F00F         	goto	u3450
  3900   001FEE                     u3451:
  3901   001FEE  EFFD  F00F         	goto	l4024
  3902   001FF2                     u3450:
  3903   001FF2                     
  3904                           ;ECU_layer/LCD/LCD.c: 66:     {;ECU_layer/LCD/LCD.c: 67:         ret = (Std_ReturnType) 
      +                          0x00;
  3905   001FF2  0E00               	movlw	0
  3906   001FF4  6E0E               	movwf	lcd_4bit_send_command@ret^0,c
  3907                           
  3908                           ;ECU_layer/LCD/LCD.c: 68:     }
  3909   001FF6  EF1D  F010         	goto	l4026
  3910   001FFA                     l4024:
  3911                           
  3912                           ;ECU_layer/LCD/LCD.c: 70:     {;ECU_layer/LCD/LCD.c: 71:         ret = gpio_pin_write_lo
      +                          gic(&(lcd->lcd_rs), GPIO_LOW);
  3913   001FFA  C00C  F001         	movff	lcd_4bit_send_command@lcd,gpio_pin_write_logic@_pin_config
  3914   001FFE  0E00               	movlw	0
  3915   002000  6E02               	movwf	gpio_pin_write_logic@logic^0,c
  3916   002002  ECA3  F009         	call	_gpio_pin_write_logic	;wreg free
  3917   002006  6E0E               	movwf	lcd_4bit_send_command@ret^0,c
  3918                           
  3919                           ;ECU_layer/LCD/LCD.c: 72:         ret = lcd_send_4bits(lcd, (command >> 4));
  3920   002008  C00C  F009         	movff	lcd_4bit_send_command@lcd,lcd_send_4bits@lcd
  3921   00200C  380D               	swapf	lcd_4bit_send_command@command^0,w,c
  3922   00200E  0B0F               	andlw	15
  3923   002010  6E0A               	movwf	lcd_send_4bits@data_command^0,c
  3924   002012  ECCD  F00E         	call	_lcd_send_4bits	;wreg free
  3925   002016  6E0E               	movwf	lcd_4bit_send_command@ret^0,c
  3926                           
  3927                           ;ECU_layer/LCD/LCD.c: 73:         ret = lcd_4bit_send_enable_signal(lcd);
  3928   002018  C00C  F009         	movff	lcd_4bit_send_command@lcd,lcd_4bit_send_enable_signal@lcd
  3929   00201C  EC8D  F010         	call	_lcd_4bit_send_enable_signal	;wreg free
  3930   002020  6E0E               	movwf	lcd_4bit_send_command@ret^0,c
  3931                           
  3932                           ;ECU_layer/LCD/LCD.c: 74:         ret = lcd_send_4bits(lcd, command);
  3933   002022  C00C  F009         	movff	lcd_4bit_send_command@lcd,lcd_send_4bits@lcd
  3934   002026  C00D  F00A         	movff	lcd_4bit_send_command@command,lcd_send_4bits@data_command
  3935   00202A  ECCD  F00E         	call	_lcd_send_4bits	;wreg free
  3936   00202E  6E0E               	movwf	lcd_4bit_send_command@ret^0,c
  3937                           
  3938                           ;ECU_layer/LCD/LCD.c: 75:         ret = lcd_4bit_send_enable_signal(lcd);
  3939   002030  C00C  F009         	movff	lcd_4bit_send_command@lcd,lcd_4bit_send_enable_signal@lcd
  3940   002034  EC8D  F010         	call	_lcd_4bit_send_enable_signal	;wreg free
  3941   002038  6E0E               	movwf	lcd_4bit_send_command@ret^0,c
  3942   00203A                     l4026:
  3943                           
  3944                           ;ECU_layer/LCD/LCD.c: 77:     return ret;
  3945   00203A  500E               	movf	lcd_4bit_send_command@ret^0,w,c
  3946   00203C  0012               	return		;funcret
  3947   00203E                     __end_of_lcd_4bit_send_command:
  3948                           	callstack 0
  3949                           
  3950 ;; *************** function _lcd_send_4bits *****************
  3951 ;; Defined at:
  3952 ;;		line 458 in file "ECU_layer/LCD/LCD.c"
  3953 ;; Parameters:    Size  Location     Type
  3954 ;;  lcd             1    8[COMRAM] PTR const struct .
  3955 ;;		 -> lcd(6), 
  3956 ;;  data_command    1    9[COMRAM] unsigned char 
  3957 ;; Auto vars:     Size  Location     Type
  3958 ;;  ret             1   10[COMRAM] unsigned char 
  3959 ;; Return value:  Size  Location     Type
  3960 ;;                  1    wreg      unsigned char 
  3961 ;; Registers used:
  3962 ;;		wreg, fsr2l, fsr2h, status,2, status,0, prodl, prodh, cstack
  3963 ;; Tracked objects:
  3964 ;;		On entry : 0/0
  3965 ;;		On exit  : 0/0
  3966 ;;		Unchanged: 0/0
  3967 ;; Data sizes:     COMRAM   BANK0   BANK1   BANK2   BANK3   BANK4   BANK5   BANK6   BANK7   BANK8   BANK9  BANK10  BANK1
      +1  BANK12  BANK13  BANK14  BANK15
  3968 ;;      Params:         2       0       0       0       0       0       0       0       0       0       0       0       
      +0       0       0       0       0
  3969 ;;      Locals:         1       0       0       0       0       0       0       0       0       0       0       0       
      +0       0       0       0       0
  3970 ;;      Temps:          0       0       0       0       0       0       0       0       0       0       0       0       
      +0       0       0       0       0
  3971 ;;      Totals:         3       0       0       0       0       0       0       0       0       0       0       0       
      +0       0       0       0       0
  3972 ;;Total ram usage:        3 bytes
  3973 ;; Hardware stack levels used: 1
  3974 ;; Hardware stack levels required when called: 1
  3975 ;; This function calls:
  3976 ;;		_gpio_pin_write_logic
  3977 ;; This function is called by:
  3978 ;;		_lcd_4bit_send_command
  3979 ;;		_lcd_4bit_send_char_data
  3980 ;; This function uses a non-reentrant model
  3981 ;;
  3982                           
  3983                           	psect	text28
  3984   001D9A                     __ptext28:
  3985                           	callstack 0
  3986   001D9A                     _lcd_send_4bits:
  3987                           	callstack 24
  3988   001D9A                     
  3989                           ;ECU_layer/LCD/LCD.c: 461:     if(lcd == ((void*)0))
  3990   001D9A  5009               	movf	lcd_send_4bits@lcd^0,w,c
  3991   001D9C  A4D8               	btfss	status,2,c
  3992   001D9E  EFD3  F00E         	goto	u3431
  3993   001DA2  EFD5  F00E         	goto	u3430
  3994   001DA6                     u3431:
  3995   001DA6  EFD9  F00E         	goto	l4002
  3996   001DAA                     u3430:
  3997   001DAA                     
  3998                           ;ECU_layer/LCD/LCD.c: 462:     {;ECU_layer/LCD/LCD.c: 463:         ret = (Std_ReturnType
      +                          ) 0x00;
  3999   001DAA  0E00               	movlw	0
  4000   001DAC  6E0B               	movwf	lcd_send_4bits@ret^0,c
  4001                           
  4002                           ;ECU_layer/LCD/LCD.c: 464:     }
  4003   001DAE  EF02  F00F         	goto	l4004
  4004   001DB2                     l4002:
  4005                           
  4006                           ;ECU_layer/LCD/LCD.c: 466:     {;ECU_layer/LCD/LCD.c: 467:         ret = gpio_pin_write_
      +                          logic(&(lcd->lcd_data[0]), (data_command >> 0) & (uint8)0x01);
  4007   001DB2  5009               	movf	lcd_send_4bits@lcd^0,w,c
  4008   001DB4  0F02               	addlw	2
  4009   001DB6  6E01               	movwf	gpio_pin_write_logic@_pin_config^0,c
  4010   001DB8  500A               	movf	lcd_send_4bits@data_command^0,w,c
  4011   001DBA  0B01               	andlw	1
  4012   001DBC  6E02               	movwf	gpio_pin_write_logic@logic^0,c
  4013   001DBE  ECA3  F009         	call	_gpio_pin_write_logic	;wreg free
  4014   001DC2  6E0B               	movwf	lcd_send_4bits@ret^0,c
  4015                           
  4016                           ;ECU_layer/LCD/LCD.c: 468:         ret = gpio_pin_write_logic(&(lcd->lcd_data[1]), (data
      +                          _command >> 1) & (uint8)0x01);
  4017   001DC4  5009               	movf	lcd_send_4bits@lcd^0,w,c
  4018   001DC6  0F03               	addlw	3
  4019   001DC8  6E01               	movwf	gpio_pin_write_logic@_pin_config^0,c
  4020   001DCA  90D8               	bcf	status,0,c
  4021   001DCC  300A               	rrcf	lcd_send_4bits@data_command^0,w,c
  4022   001DCE  0B01               	andlw	1
  4023   001DD0  6E02               	movwf	gpio_pin_write_logic@logic^0,c
  4024   001DD2  ECA3  F009         	call	_gpio_pin_write_logic	;wreg free
  4025   001DD6  6E0B               	movwf	lcd_send_4bits@ret^0,c
  4026                           
  4027                           ;ECU_layer/LCD/LCD.c: 469:         ret = gpio_pin_write_logic(&(lcd->lcd_data[2]), (data
      +                          _command >> 2) & (uint8)0x01);
  4028   001DD8  5009               	movf	lcd_send_4bits@lcd^0,w,c
  4029   001DDA  0F04               	addlw	4
  4030   001DDC  6E01               	movwf	gpio_pin_write_logic@_pin_config^0,c
  4031   001DDE  400A               	rrncf	lcd_send_4bits@data_command^0,w,c
  4032   001DE0  42E8               	rrncf	wreg,f,c
  4033   001DE2  0B3F               	andlw	63
  4034   001DE4  0B01               	andlw	1
  4035   001DE6  6E02               	movwf	gpio_pin_write_logic@logic^0,c
  4036   001DE8  ECA3  F009         	call	_gpio_pin_write_logic	;wreg free
  4037   001DEC  6E0B               	movwf	lcd_send_4bits@ret^0,c
  4038                           
  4039                           ;ECU_layer/LCD/LCD.c: 470:         ret = gpio_pin_write_logic(&(lcd->lcd_data[3]), (data
      +                          _command >> 3) & (uint8)0x01);
  4040   001DEE  5009               	movf	lcd_send_4bits@lcd^0,w,c
  4041   001DF0  0F05               	addlw	5
  4042   001DF2  6E01               	movwf	gpio_pin_write_logic@_pin_config^0,c
  4043   001DF4  380A               	swapf	lcd_send_4bits@data_command^0,w,c
  4044   001DF6  46E8               	rlncf	wreg,f,c
  4045   001DF8  0B1F               	andlw	31
  4046   001DFA  0B01               	andlw	1
  4047   001DFC  6E02               	movwf	gpio_pin_write_logic@logic^0,c
  4048   001DFE  ECA3  F009         	call	_gpio_pin_write_logic	;wreg free
  4049   001E02  6E0B               	movwf	lcd_send_4bits@ret^0,c
  4050   001E04                     l4004:
  4051                           
  4052                           ;ECU_layer/LCD/LCD.c: 472:     return ret;
  4053   001E04  500B               	movf	lcd_send_4bits@ret^0,w,c
  4054   001E06  0012               	return		;funcret
  4055   001E08                     __end_of_lcd_send_4bits:
  4056                           	callstack 0
  4057                           
  4058 ;; *************** function _lcd_4bit_send_enable_signal *****************
  4059 ;; Defined at:
  4060 ;;		line 474 in file "ECU_layer/LCD/LCD.c"
  4061 ;; Parameters:    Size  Location     Type
  4062 ;;  lcd             1    8[COMRAM] PTR const struct .
  4063 ;;		 -> lcd(6), 
  4064 ;; Auto vars:     Size  Location     Type
  4065 ;;  ret             1    9[COMRAM] unsigned char 
  4066 ;; Return value:  Size  Location     Type
  4067 ;;                  1    wreg      unsigned char 
  4068 ;; Registers used:
  4069 ;;		wreg, fsr2l, fsr2h, status,2, status,0, prodl, prodh, cstack
  4070 ;; Tracked objects:
  4071 ;;		On entry : 0/0
  4072 ;;		On exit  : 0/0
  4073 ;;		Unchanged: 0/0
  4074 ;; Data sizes:     COMRAM   BANK0   BANK1   BANK2   BANK3   BANK4   BANK5   BANK6   BANK7   BANK8   BANK9  BANK10  BANK1
      +1  BANK12  BANK13  BANK14  BANK15
  4075 ;;      Params:         1       0       0       0       0       0       0       0       0       0       0       0       
      +0       0       0       0       0
  4076 ;;      Locals:         1       0       0       0       0       0       0       0       0       0       0       0       
      +0       0       0       0       0
  4077 ;;      Temps:          0       0       0       0       0       0       0       0       0       0       0       0       
      +0       0       0       0       0
  4078 ;;      Totals:         2       0       0       0       0       0       0       0       0       0       0       0       
      +0       0       0       0       0
  4079 ;;Total ram usage:        2 bytes
  4080 ;; Hardware stack levels used: 1
  4081 ;; Hardware stack levels required when called: 1
  4082 ;; This function calls:
  4083 ;;		_gpio_pin_write_logic
  4084 ;; This function is called by:
  4085 ;;		_lcd_4bit_send_command
  4086 ;;		_lcd_4bit_send_char_data
  4087 ;; This function uses a non-reentrant model
  4088 ;;
  4089                           
  4090                           	psect	text29
  4091   00211A                     __ptext29:
  4092                           	callstack 0
  4093   00211A                     _lcd_4bit_send_enable_signal:
  4094                           	callstack 24
  4095   00211A                     
  4096                           ;ECU_layer/LCD/LCD.c: 477:     if(lcd == ((void*)0))
  4097   00211A  5009               	movf	lcd_4bit_send_enable_signal@lcd^0,w,c
  4098   00211C  A4D8               	btfss	status,2,c
  4099   00211E  EF93  F010         	goto	u3441
  4100   002122  EF95  F010         	goto	u3440
  4101   002126                     u3441:
  4102   002126  EF99  F010         	goto	l4012
  4103   00212A                     u3440:
  4104   00212A                     
  4105                           ;ECU_layer/LCD/LCD.c: 478:     {;ECU_layer/LCD/LCD.c: 479:         ret = (Std_ReturnType
      +                          ) 0x00;
  4106   00212A  0E00               	movlw	0
  4107   00212C  6E0A               	movwf	lcd_4bit_send_enable_signal@ret^0,c
  4108                           
  4109                           ;ECU_layer/LCD/LCD.c: 480:     }
  4110   00212E  EFA9  F010         	goto	l4016
  4111   002132                     l4012:
  4112   002132  2809               	incf	lcd_4bit_send_enable_signal@lcd^0,w,c
  4113   002134  6E01               	movwf	gpio_pin_write_logic@_pin_config^0,c
  4114   002136  0E01               	movlw	1
  4115   002138  6E02               	movwf	gpio_pin_write_logic@logic^0,c
  4116   00213A  ECA3  F009         	call	_gpio_pin_write_logic	;wreg free
  4117   00213E                     
  4118                           ;ECU_layer/LCD/LCD.c: 485:         _delay((unsigned long)((5)*(4000000UL/4000000.0)));
  4119   00213E  D000               	nop2		;2 cycle nop
  4120   002140  D000               	nop2		;2 cycle nop
  4121   002142  0000               	nop	
  4122                           
  4123                           ;ECU_layer/LCD/LCD.c: 486:         ret = gpio_pin_write_logic(&(lcd->lcd_en), GPIO_LOW);
  4124   002144  2809               	incf	lcd_4bit_send_enable_signal@lcd^0,w,c
  4125   002146  6E01               	movwf	gpio_pin_write_logic@_pin_config^0,c
  4126   002148  0E00               	movlw	0
  4127   00214A  6E02               	movwf	gpio_pin_write_logic@logic^0,c
  4128   00214C  ECA3  F009         	call	_gpio_pin_write_logic	;wreg free
  4129   002150  6E0A               	movwf	lcd_4bit_send_enable_signal@ret^0,c
  4130   002152                     l4016:
  4131                           
  4132                           ;ECU_layer/LCD/LCD.c: 488:     return ret;
  4133   002152  500A               	movf	lcd_4bit_send_enable_signal@ret^0,w,c
  4134   002154  0012               	return		;funcret
  4135   002156                     __end_of_lcd_4bit_send_enable_signal:
  4136                           	callstack 0
  4137                           
  4138 ;; *************** function _keypad_initialize *****************
  4139 ;; Defined at:
  4140 ;;		line 17 in file "ECU_layer/Keypad/keypad.c"
  4141 ;; Parameters:    Size  Location     Type
  4142 ;;  kpd             1   11[COMRAM] PTR const struct .
  4143 ;;		 -> keypad(8), 
  4144 ;; Auto vars:     Size  Location     Type
  4145 ;;  i               1   13[COMRAM] unsigned char 
  4146 ;;  ret             1   12[COMRAM] unsigned char 
  4147 ;; Return value:  Size  Location     Type
  4148 ;;                  1    wreg      unsigned char 
  4149 ;; Registers used:
  4150 ;;		wreg, fsr2l, fsr2h, status,2, status,0, prodl, prodh, cstack
  4151 ;; Tracked objects:
  4152 ;;		On entry : 0/0
  4153 ;;		On exit  : 0/0
  4154 ;;		Unchanged: 0/0
  4155 ;; Data sizes:     COMRAM   BANK0   BANK1   BANK2   BANK3   BANK4   BANK5   BANK6   BANK7   BANK8   BANK9  BANK10  BANK1
      +1  BANK12  BANK13  BANK14  BANK15
  4156 ;;      Params:         1       0       0       0       0       0       0       0       0       0       0       0       
      +0       0       0       0       0
  4157 ;;      Locals:         2       0       0       0       0       0       0       0       0       0       0       0       
      +0       0       0       0       0
  4158 ;;      Temps:          0       0       0       0       0       0       0       0       0       0       0       0       
      +0       0       0       0       0
  4159 ;;      Totals:         3       0       0       0       0       0       0       0       0       0       0       0       
      +0       0       0       0       0
  4160 ;;Total ram usage:        3 bytes
  4161 ;; Hardware stack levels used: 1
  4162 ;; Hardware stack levels required when called: 2
  4163 ;; This function calls:
  4164 ;;		_gpio_pin_direction_initialize
  4165 ;;		_gpio_pin_initialize
  4166 ;; This function is called by:
  4167 ;;		_ecu_layer_initailize
  4168 ;; This function uses a non-reentrant model
  4169 ;;
  4170                           
  4171                           	psect	text30
  4172   001E6A                     __ptext30:
  4173                           	callstack 0
  4174   001E6A                     _keypad_initialize:
  4175                           	callstack 26
  4176   001E6A                     
  4177                           ;ECU_layer/Keypad/keypad.c: 20:     if(kpd == ((void*)0))
  4178   001E6A  500C               	movf	keypad_initialize@kpd^0,w,c
  4179   001E6C  A4D8               	btfss	status,2,c
  4180   001E6E  EF3B  F00F         	goto	u3711
  4181   001E72  EF3D  F00F         	goto	u3710
  4182   001E76                     u3711:
  4183   001E76  EF41  F00F         	goto	l4186
  4184   001E7A                     u3710:
  4185   001E7A                     
  4186                           ;ECU_layer/Keypad/keypad.c: 21:     {;ECU_layer/Keypad/keypad.c: 22:         ret = (Std_
      +                          ReturnType) 0x00;
  4187   001E7A  0E00               	movlw	0
  4188   001E7C  6E0D               	movwf	keypad_initialize@ret^0,c
  4189                           
  4190                           ;ECU_layer/Keypad/keypad.c: 23:     }
  4191   001E7E  EF64  F00F         	goto	l96
  4192   001E82                     l4186:
  4193                           
  4194                           ;ECU_layer/Keypad/keypad.c: 25:     {;ECU_layer/Keypad/keypad.c: 26:         uint8 i;;EC
      +                          U_layer/Keypad/keypad.c: 27:         for(i = 0; i < 4; i++)
  4195   001E82  0E00               	movlw	0
  4196   001E84  6E0E               	movwf	keypad_initialize@i^0,c
  4197   001E86                     l4192:
  4198   001E86  500C               	movf	keypad_initialize@kpd^0,w,c
  4199   001E88  240E               	addwf	keypad_initialize@i^0,w,c
  4200   001E8A  6E09               	movwf	gpio_pin_initialize@_pin_config^0,c
  4201   001E8C  EC66  F00F         	call	_gpio_pin_initialize	;wreg free
  4202   001E90                     
  4203                           ;ECU_layer/Keypad/keypad.c: 30:         }
  4204   001E90  2A0E               	incf	keypad_initialize@i^0,f,c
  4205   001E92  0E03               	movlw	3
  4206   001E94  640E               	cpfsgt	keypad_initialize@i^0,c
  4207   001E96  EF4F  F00F         	goto	u3721
  4208   001E9A  EF51  F00F         	goto	u3720
  4209   001E9E                     u3721:
  4210   001E9E  EF43  F00F         	goto	l4192
  4211   001EA2                     u3720:
  4212   001EA2                     
  4213                           ;ECU_layer/Keypad/keypad.c: 32:         for(i = 0; i < 4; i++)
  4214   001EA2  0E00               	movlw	0
  4215   001EA4  6E0E               	movwf	keypad_initialize@i^0,c
  4216   001EA6                     l4204:
  4217   001EA6  500C               	movf	keypad_initialize@kpd^0,w,c
  4218   001EA8  240E               	addwf	keypad_initialize@i^0,w,c
  4219   001EAA  0F04               	addlw	4
  4220   001EAC  6E01               	movwf	gpio_pin_direction_initialize@_pin_config^0,c
  4221   001EAE  EC10  F009         	call	_gpio_pin_direction_initialize	;wreg free
  4222   001EB2                     
  4223                           ;ECU_layer/Keypad/keypad.c: 35:         }
  4224   001EB2  2A0E               	incf	keypad_initialize@i^0,f,c
  4225   001EB4  0E03               	movlw	3
  4226   001EB6  640E               	cpfsgt	keypad_initialize@i^0,c
  4227   001EB8  EF60  F00F         	goto	u3731
  4228   001EBC  EF62  F00F         	goto	u3730
  4229   001EC0                     u3731:
  4230   001EC0  EF53  F00F         	goto	l4204
  4231   001EC4                     u3730:
  4232   001EC4                     
  4233                           ;ECU_layer/Keypad/keypad.c: 36:         ret = (Std_ReturnType) 0x01;
  4234   001EC4  0E01               	movlw	1
  4235   001EC6  6E0D               	movwf	keypad_initialize@ret^0,c
  4236   001EC8                     l96:
  4237                           
  4238                           ;ECU_layer/Keypad/keypad.c: 38:     return ret;
  4239   001EC8  500D               	movf	keypad_initialize@ret^0,w,c
  4240   001ECA  0012               	return		;funcret
  4241   001ECC                     __end_of_keypad_initialize:
  4242                           	callstack 0
  4243                           
  4244 ;; *************** function _gpio_pin_initialize *****************
  4245 ;; Defined at:
  4246 ;;		line 159 in file "MCAL_layer/GPIO/hal_gpio.c"
  4247 ;; Parameters:    Size  Location     Type
  4248 ;;  _pin_config     1    8[COMRAM] PTR const struct .
  4249 ;;		 -> keypad$keypad_rows_pin(4), lcd$lcd_data(4), keypad(8), lcd(6), 
  4250 ;;		 -> Relay_initialize@obj(1), led_initialize@obj(1), dc_motor_intitialize@obj2(1), dc_motor_intitialize@obj1(1), 
  4251 ;; Auto vars:     Size  Location     Type
  4252 ;;  ret             1   10[COMRAM] unsigned char 
  4253 ;; Return value:  Size  Location     Type
  4254 ;;                  1    wreg      unsigned char 
  4255 ;; Registers used:
  4256 ;;		wreg, fsr2l, fsr2h, status,2, status,0, prodl, prodh, cstack
  4257 ;; Tracked objects:
  4258 ;;		On entry : 0/0
  4259 ;;		On exit  : 0/0
  4260 ;;		Unchanged: 0/0
  4261 ;; Data sizes:     COMRAM   BANK0   BANK1   BANK2   BANK3   BANK4   BANK5   BANK6   BANK7   BANK8   BANK9  BANK10  BANK1
      +1  BANK12  BANK13  BANK14  BANK15
  4262 ;;      Params:         1       0       0       0       0       0       0       0       0       0       0       0       
      +0       0       0       0       0
  4263 ;;      Locals:         1       0       0       0       0       0       0       0       0       0       0       0       
      +0       0       0       0       0
  4264 ;;      Temps:          1       0       0       0       0       0       0       0       0       0       0       0       
      +0       0       0       0       0
  4265 ;;      Totals:         3       0       0       0       0       0       0       0       0       0       0       0       
      +0       0       0       0       0
  4266 ;;Total ram usage:        3 bytes
  4267 ;; Hardware stack levels used: 1
  4268 ;; Hardware stack levels required when called: 1
  4269 ;; This function calls:
  4270 ;;		_gpio_pin_direction_initialize
  4271 ;;		_gpio_pin_write_logic
  4272 ;; This function is called by:
  4273 ;;		_keypad_initialize
  4274 ;;		_lcd_4bit_initialize
  4275 ;;		_segment_inititalize
  4276 ;;		_dc_motor_intitialize
  4277 ;;		_led_initialize
  4278 ;;		_Relay_initialize
  4279 ;;		_lcd_8bit_initialize
  4280 ;; This function uses a non-reentrant model
  4281 ;;
  4282                           
  4283                           	psect	text31
  4284   001ECC                     __ptext31:
  4285                           	callstack 0
  4286   001ECC                     _gpio_pin_initialize:
  4287                           	callstack 26
  4288   001ECC                     
  4289                           ;MCAL_layer/GPIO/hal_gpio.c: 162:     if(((void*)0) == _pin_config || _pin_config->pin >
      +                           8 -1)
  4290   001ECC  5009               	movf	gpio_pin_initialize@_pin_config^0,w,c
  4291   001ECE  B4D8               	btfsc	status,2,c
  4292   001ED0  EF6C  F00F         	goto	u3601
  4293   001ED4  EF6E  F00F         	goto	u3600
  4294   001ED8                     u3601:
  4295   001ED8  EF7E  F00F         	goto	l4112
  4296   001EDC                     u3600:
  4297   001EDC  5009               	movf	gpio_pin_initialize@_pin_config^0,w,c
  4298   001EDE  6ED9               	movwf	fsr2l,c
  4299   001EE0  6ADA               	clrf	fsr2h,c
  4300   001EE2  30DF               	rrcf	223,w,c
  4301   001EE4  32E8               	rrcf	wreg,f,c
  4302   001EE6  32E8               	rrcf	wreg,f,c
  4303   001EE8  0B07               	andlw	7
  4304   001EEA  6E0A               	movwf	??_gpio_pin_initialize^0,c
  4305   001EEC  0E07               	movlw	7
  4306   001EEE  640A               	cpfsgt	??_gpio_pin_initialize^0,c
  4307   001EF0  EF7C  F00F         	goto	u3611
  4308   001EF4  EF7E  F00F         	goto	u3610
  4309   001EF8                     u3611:
  4310   001EF8  EF82  F00F         	goto	l4114
  4311   001EFC                     u3610:
  4312   001EFC                     l4112:
  4313                           
  4314                           ;MCAL_layer/GPIO/hal_gpio.c: 163:     {;MCAL_layer/GPIO/hal_gpio.c: 164:         ret = (
      +                          Std_ReturnType) 0x00;
  4315   001EFC  0E00               	movlw	0
  4316   001EFE  6E0B               	movwf	gpio_pin_initialize@ret^0,c
  4317                           
  4318                           ;MCAL_layer/GPIO/hal_gpio.c: 165:     }
  4319   001F00  EF93  F00F         	goto	l4116
  4320   001F04                     l4114:
  4321                           
  4322                           ;MCAL_layer/GPIO/hal_gpio.c: 167:     {;MCAL_layer/GPIO/hal_gpio.c: 168:         ret = g
      +                          pio_pin_direction_initialize(_pin_config);
  4323   001F04  C009  F001         	movff	gpio_pin_initialize@_pin_config,gpio_pin_direction_initialize@_pin_config
  4324   001F08  EC10  F009         	call	_gpio_pin_direction_initialize	;wreg free
  4325   001F0C  6E0B               	movwf	gpio_pin_initialize@ret^0,c
  4326                           
  4327                           ;MCAL_layer/GPIO/hal_gpio.c: 169:         ret = gpio_pin_write_logic(_pin_config, _pin_c
      +                          onfig->logic);
  4328   001F0E  C009  F001         	movff	gpio_pin_initialize@_pin_config,gpio_pin_write_logic@_pin_config
  4329   001F12  5009               	movf	gpio_pin_initialize@_pin_config^0,w,c
  4330   001F14  6ED9               	movwf	fsr2l,c
  4331   001F16  6ADA               	clrf	fsr2h,c
  4332   001F18  0E00               	movlw	0
  4333   001F1A  BEDF               	btfsc	indf2,7,c
  4334   001F1C  0E01               	movlw	1
  4335   001F1E  6E02               	movwf	gpio_pin_write_logic@logic^0,c
  4336   001F20  ECA3  F009         	call	_gpio_pin_write_logic	;wreg free
  4337   001F24  6E0B               	movwf	gpio_pin_initialize@ret^0,c
  4338   001F26                     l4116:
  4339                           
  4340                           ;MCAL_layer/GPIO/hal_gpio.c: 171:     return ret;
  4341   001F26  500B               	movf	gpio_pin_initialize@ret^0,w,c
  4342   001F28  0012               	return		;funcret
  4343   001F2A                     __end_of_gpio_pin_initialize:
  4344                           	callstack 0
  4345                           
  4346 ;; *************** function _gpio_pin_write_logic *****************
  4347 ;; Defined at:
  4348 ;;		line 82 in file "MCAL_layer/GPIO/hal_gpio.c"
  4349 ;; Parameters:    Size  Location     Type
  4350 ;;  _pin_config     1    0[COMRAM] PTR const struct .
  4351 ;;		 -> keypad$keypad_rows_pin(4), lcd$lcd_data(4), keypad(8), lcd(6), 
  4352 ;;		 -> Relay_turn_off@obj(1), Relay_turn_on@obj(1), Relay_initialize@obj(1), led_turn_off@obj(1), 
  4353 ;;		 -> led_turn_on@obj(1), led_initialize@obj(1), dc_motor_stop@obj2(1), dc_motor_stop@obj1(1), 
  4354 ;;		 -> dc_motor_move_left@obj2(1), dc_motor_move_left@obj1(1), dc_motor_move_right@obj2(1), dc_motor_move_right@obj1(1)
      +, 
  4355 ;;		 -> dc_motor_intitialize@obj2(1), dc_motor_intitialize@obj1(1), 
  4356 ;;  logic           1    1[COMRAM] enum E2978
  4357 ;; Auto vars:     Size  Location     Type
  4358 ;;  ret             1    7[COMRAM] unsigned char 
  4359 ;; Return value:  Size  Location     Type
  4360 ;;                  1    wreg      unsigned char 
  4361 ;; Registers used:
  4362 ;;		wreg, fsr2l, fsr2h, status,2, status,0, prodl, prodh
  4363 ;; Tracked objects:
  4364 ;;		On entry : 0/0
  4365 ;;		On exit  : 0/0
  4366 ;;		Unchanged: 0/0
  4367 ;; Data sizes:     COMRAM   BANK0   BANK1   BANK2   BANK3   BANK4   BANK5   BANK6   BANK7   BANK8   BANK9  BANK10  BANK1
      +1  BANK12  BANK13  BANK14  BANK15
  4368 ;;      Params:         2       0       0       0       0       0       0       0       0       0       0       0       
      +0       0       0       0       0
  4369 ;;      Locals:         1       0       0       0       0       0       0       0       0       0       0       0       
      +0       0       0       0       0
  4370 ;;      Temps:          5       0       0       0       0       0       0       0       0       0       0       0       
      +0       0       0       0       0
  4371 ;;      Totals:         8       0       0       0       0       0       0       0       0       0       0       0       
      +0       0       0       0       0
  4372 ;;Total ram usage:        8 bytes
  4373 ;; Hardware stack levels used: 1
  4374 ;; This function calls:
  4375 ;;		Nothing
  4376 ;; This function is called by:
  4377 ;;		_keypad_get_value
  4378 ;;		_gpio_pin_initialize
  4379 ;;		_lcd_4bit_send_command
  4380 ;;		_lcd_4bit_send_char_data
  4381 ;;		_lcd_send_4bits
  4382 ;;		_lcd_4bit_send_enable_signal
  4383 ;;		_segment_write_number
  4384 ;;		_dc_motor_move_right
  4385 ;;		_dc_motor_move_left
  4386 ;;		_dc_motor_stop
  4387 ;;		_led_turn_on
  4388 ;;		_led_turn_off
  4389 ;;		_Relay_turn_on
  4390 ;;		_Relay_turn_off
  4391 ;;		_lcd_8bit_send_command
  4392 ;;		_lcd_8bit_send_char_data
  4393 ;;		_lcd_8bit_send_enable_signal
  4394 ;; This function uses a non-reentrant model
  4395 ;;
  4396                           
  4397                           	psect	text32
  4398   001346                     __ptext32:
  4399                           	callstack 0
  4400   001346                     _gpio_pin_write_logic:
  4401                           	callstack 24
  4402   001346                     
  4403                           ;MCAL_layer/GPIO/hal_gpio.c: 82: Std_ReturnType gpio_pin_write_logic(const pin_config_t 
      +                          *_pin_config, logic_t logic);MCAL_layer/GPIO/hal_gpio.c: 83: {;MCAL_layer/GPIO/hal_gpio.
      +                          c: 84:     Std_ReturnType ret = (Std_ReturnType) 0x01;
  4404   001346  0E01               	movlw	1
  4405   001348  6E08               	movwf	gpio_pin_write_logic@ret^0,c
  4406                           
  4407                           ;MCAL_layer/GPIO/hal_gpio.c: 85:     if(((void*)0) == _pin_config || _pin_config->pin > 
      +                          8 -1)
  4408   00134A  5001               	movf	gpio_pin_write_logic@_pin_config^0,w,c
  4409   00134C  B4D8               	btfsc	status,2,c
  4410   00134E  EFAB  F009         	goto	u3391
  4411   001352  EFAD  F009         	goto	u3390
  4412   001356                     u3391:
  4413   001356  EFBD  F009         	goto	l3980
  4414   00135A                     u3390:
  4415   00135A  5001               	movf	gpio_pin_write_logic@_pin_config^0,w,c
  4416   00135C  6ED9               	movwf	fsr2l,c
  4417   00135E  6ADA               	clrf	fsr2h,c
  4418   001360  30DF               	rrcf	223,w,c
  4419   001362  32E8               	rrcf	wreg,f,c
  4420   001364  32E8               	rrcf	wreg,f,c
  4421   001366  0B07               	andlw	7
  4422   001368  6E03               	movwf	??_gpio_pin_write_logic^0,c
  4423   00136A  0E07               	movlw	7
  4424   00136C  6403               	cpfsgt	??_gpio_pin_write_logic^0,c
  4425   00136E  EFBB  F009         	goto	u3401
  4426   001372  EFBD  F009         	goto	u3400
  4427   001376                     u3401:
  4428   001376  EF14  F00A         	goto	l3988
  4429   00137A                     u3400:
  4430   00137A                     l3980:
  4431                           
  4432                           ;MCAL_layer/GPIO/hal_gpio.c: 86:     {;MCAL_layer/GPIO/hal_gpio.c: 87:         ret = (St
      +                          d_ReturnType) 0x00;
  4433   00137A  0E00               	movlw	0
  4434   00137C  6E08               	movwf	gpio_pin_write_logic@ret^0,c
  4435                           
  4436                           ;MCAL_layer/GPIO/hal_gpio.c: 88:     }
  4437   00137E  EF29  F00A         	goto	l3990
  4438   001382                     l3982:
  4439                           
  4440                           ;MCAL_layer/GPIO/hal_gpio.c: 93:                 (*lat_registers[_pin_config->port] &= ~
      +                          ((uint8)1 << _pin_config->pin));
  4441   001382  5001               	movf	gpio_pin_write_logic@_pin_config^0,w,c
  4442   001384  6ED9               	movwf	fsr2l,c
  4443   001386  6ADA               	clrf	fsr2h,c
  4444   001388  30DF               	rrcf	223,w,c
  4445   00138A  32E8               	rrcf	wreg,f,c
  4446   00138C  32E8               	rrcf	wreg,f,c
  4447   00138E  0B07               	andlw	7
  4448   001390  6E03               	movwf	??_gpio_pin_write_logic^0,c
  4449   001392  0E01               	movlw	1
  4450   001394  6E04               	movwf	(??_gpio_pin_write_logic+1)^0,c
  4451   001396  2A03               	incf	??_gpio_pin_write_logic^0,f,c
  4452   001398  EFD0  F009         	goto	u3414
  4453   00139C                     u3415:
  4454   00139C  90D8               	bcf	status,0,c
  4455   00139E  3604               	rlcf	(??_gpio_pin_write_logic+1)^0,f,c
  4456   0013A0                     u3414:
  4457   0013A0  2E03               	decfsz	??_gpio_pin_write_logic^0,f,c
  4458   0013A2  EFCE  F009         	goto	u3415
  4459   0013A6  5004               	movf	(??_gpio_pin_write_logic+1)^0,w,c
  4460   0013A8  0AFF               	xorlw	255
  4461   0013AA  6E05               	movwf	(??_gpio_pin_write_logic+2)^0,c
  4462   0013AC  5001               	movf	gpio_pin_write_logic@_pin_config^0,w,c
  4463   0013AE  6ED9               	movwf	fsr2l,c
  4464   0013B0  6ADA               	clrf	fsr2h,c
  4465   0013B2  50DF               	movf	223,w,c
  4466   0013B4  0B07               	andlw	7
  4467   0013B6  0D02               	mullw	2
  4468   0013B8  50F3               	movf	243,w,c
  4469   0013BA  0F59               	addlw	low _lat_registers
  4470   0013BC  6ED9               	movwf	fsr2l,c
  4471   0013BE  6ADA               	clrf	fsr2h,c
  4472   0013C0  CFDE F006          	movff	postinc2,??_gpio_pin_write_logic+3
  4473   0013C4  CFDD F007          	movff	postdec2,??_gpio_pin_write_logic+4
  4474   0013C8  C006  FFD9         	movff	??_gpio_pin_write_logic+3,fsr2l
  4475   0013CC  C007  FFDA         	movff	??_gpio_pin_write_logic+4,fsr2h
  4476   0013D0  5005               	movf	(??_gpio_pin_write_logic+2)^0,w,c
  4477   0013D2  16DF               	andwf	indf2,f,c
  4478                           
  4479                           ;MCAL_layer/GPIO/hal_gpio.c: 94:                 break;
  4480   0013D4  EF29  F00A         	goto	l3990
  4481   0013D8                     l3984:
  4482                           
  4483                           ;MCAL_layer/GPIO/hal_gpio.c: 96:                 (*lat_registers[_pin_config->port] |= (
      +                          (uint8)1 << _pin_config->pin));
  4484   0013D8  5001               	movf	gpio_pin_write_logic@_pin_config^0,w,c
  4485   0013DA  6ED9               	movwf	fsr2l,c
  4486   0013DC  6ADA               	clrf	fsr2h,c
  4487   0013DE  30DF               	rrcf	223,w,c
  4488   0013E0  32E8               	rrcf	wreg,f,c
  4489   0013E2  32E8               	rrcf	wreg,f,c
  4490   0013E4  0B07               	andlw	7
  4491   0013E6  6E03               	movwf	??_gpio_pin_write_logic^0,c
  4492   0013E8  0E01               	movlw	1
  4493   0013EA  6E04               	movwf	(??_gpio_pin_write_logic+1)^0,c
  4494   0013EC  2A03               	incf	??_gpio_pin_write_logic^0,f,c
  4495   0013EE  EFFB  F009         	goto	u3424
  4496   0013F2                     u3425:
  4497   0013F2  90D8               	bcf	status,0,c
  4498   0013F4  3604               	rlcf	(??_gpio_pin_write_logic+1)^0,f,c
  4499   0013F6                     u3424:
  4500   0013F6  2E03               	decfsz	??_gpio_pin_write_logic^0,f,c
  4501   0013F8  EFF9  F009         	goto	u3425
  4502   0013FC  5001               	movf	gpio_pin_write_logic@_pin_config^0,w,c
  4503   0013FE  6ED9               	movwf	fsr2l,c
  4504   001400  6ADA               	clrf	fsr2h,c
  4505   001402  50DF               	movf	223,w,c
  4506   001404  0B07               	andlw	7
  4507   001406  0D02               	mullw	2
  4508   001408  50F3               	movf	243,w,c
  4509   00140A  0F59               	addlw	low _lat_registers
  4510   00140C  6ED9               	movwf	fsr2l,c
  4511   00140E  6ADA               	clrf	fsr2h,c
  4512   001410  CFDE F005          	movff	postinc2,??_gpio_pin_write_logic+2
  4513   001414  CFDD F006          	movff	postdec2,??_gpio_pin_write_logic+3
  4514   001418  C005  FFD9         	movff	??_gpio_pin_write_logic+2,fsr2l
  4515   00141C  C006  FFDA         	movff	??_gpio_pin_write_logic+3,fsr2h
  4516   001420  5004               	movf	(??_gpio_pin_write_logic+1)^0,w,c
  4517   001422  12DF               	iorwf	indf2,f,c
  4518                           
  4519                           ;MCAL_layer/GPIO/hal_gpio.c: 97:                 break;
  4520   001424  EF29  F00A         	goto	l3990
  4521   001428                     l3988:
  4522   001428  5002               	movf	gpio_pin_write_logic@logic^0,w,c
  4523   00142A  6E03               	movwf	??_gpio_pin_write_logic^0,c
  4524   00142C  6A04               	clrf	(??_gpio_pin_write_logic+1)^0,c
  4525                           
  4526                           ; Switch on 2 bytes has been partitioned into a top level switch of size 1, and 1 sub-sw
      +                          itches
  4527                           ; Switch size 1, requested type "simple"
  4528                           ; Number of cases is 1, Range of values is 0 to 0
  4529                           ; switch strategies available:
  4530                           ; Name         Instructions Cycles
  4531                           ; simple_byte            4     3 (average)
  4532                           ;	Chosen strategy is simple_byte
  4533   00142E  5004               	movf	(??_gpio_pin_write_logic+1)^0,w,c
  4534   001430  0A00               	xorlw	0	; case 0
  4535   001432  B4D8               	btfsc	status,2,c
  4536   001434  EF1E  F00A         	goto	l5012
  4537   001438  EFBD  F009         	goto	l3980
  4538   00143C                     l5012:
  4539                           
  4540                           ; Switch size 1, requested type "simple"
  4541                           ; Number of cases is 2, Range of values is 0 to 1
  4542                           ; switch strategies available:
  4543                           ; Name         Instructions Cycles
  4544                           ; simple_byte            7     4 (average)
  4545                           ;	Chosen strategy is simple_byte
  4546   00143C  5003               	movf	??_gpio_pin_write_logic^0,w,c
  4547   00143E  0A00               	xorlw	0	; case 0
  4548   001440  B4D8               	btfsc	status,2,c
  4549   001442  EFC1  F009         	goto	l3982
  4550   001446  0A01               	xorlw	1	; case 1
  4551   001448  B4D8               	btfsc	status,2,c
  4552   00144A  EFEC  F009         	goto	l3984
  4553   00144E  EFBD  F009         	goto	l3980
  4554   001452                     l3990:
  4555                           
  4556                           ;MCAL_layer/GPIO/hal_gpio.c: 101:     return ret;
  4557   001452  5008               	movf	gpio_pin_write_logic@ret^0,w,c
  4558   001454  0012               	return		;funcret
  4559   001456                     __end_of_gpio_pin_write_logic:
  4560                           	callstack 0
  4561                           
  4562 ;; *************** function _gpio_pin_direction_initialize *****************
  4563 ;; Defined at:
  4564 ;;		line 25 in file "MCAL_layer/GPIO/hal_gpio.c"
  4565 ;; Parameters:    Size  Location     Type
  4566 ;;  _pin_config     1    0[COMRAM] PTR const struct .
  4567 ;;		 -> keypad$keypad_columns_pin(4), keypad$keypad_rows_pin(4), lcd$lcd_data(4), keypad(8), 
  4568 ;;		 -> lcd(6), Relay_initialize@obj(1), led_initialize@obj(1), dc_motor_intitialize@obj2(1), 
  4569 ;;		 -> dc_motor_intitialize@obj1(1), 
  4570 ;; Auto vars:     Size  Location     Type
  4571 ;;  ret             1    6[COMRAM] unsigned char 
  4572 ;; Return value:  Size  Location     Type
  4573 ;;                  1    wreg      unsigned char 
  4574 ;; Registers used:
  4575 ;;		wreg, fsr2l, fsr2h, status,2, status,0, prodl, prodh
  4576 ;; Tracked objects:
  4577 ;;		On entry : 0/0
  4578 ;;		On exit  : 0/0
  4579 ;;		Unchanged: 0/0
  4580 ;; Data sizes:     COMRAM   BANK0   BANK1   BANK2   BANK3   BANK4   BANK5   BANK6   BANK7   BANK8   BANK9  BANK10  BANK1
      +1  BANK12  BANK13  BANK14  BANK15
  4581 ;;      Params:         1       0       0       0       0       0       0       0       0       0       0       0       
      +0       0       0       0       0
  4582 ;;      Locals:         1       0       0       0       0       0       0       0       0       0       0       0       
      +0       0       0       0       0
  4583 ;;      Temps:          5       0       0       0       0       0       0       0       0       0       0       0       
      +0       0       0       0       0
  4584 ;;      Totals:         7       0       0       0       0       0       0       0       0       0       0       0       
      +0       0       0       0       0
  4585 ;;Total ram usage:        7 bytes
  4586 ;; Hardware stack levels used: 1
  4587 ;; This function calls:
  4588 ;;		Nothing
  4589 ;; This function is called by:
  4590 ;;		_keypad_initialize
  4591 ;;		_gpio_pin_initialize
  4592 ;;		_Button_initialize
  4593 ;; This function uses a non-reentrant model
  4594 ;;
  4595                           
  4596                           	psect	text33
  4597   001220                     __ptext33:
  4598                           	callstack 0
  4599   001220                     _gpio_pin_direction_initialize:
  4600                           	callstack 26
  4601   001220                     
  4602                           ;MCAL_layer/GPIO/hal_gpio.c: 25: Std_ReturnType gpio_pin_direction_initialize(const pin_
      +                          config_t *_pin_config);MCAL_layer/GPIO/hal_gpio.c: 26: {;MCAL_layer/GPIO/hal_gpio.c: 27:
      +                               Std_ReturnType ret = (Std_ReturnType) 0x01;
  4603   001220  0E01               	movlw	1
  4604   001222  6E07               	movwf	gpio_pin_direction_initialize@ret^0,c
  4605                           
  4606                           ;MCAL_layer/GPIO/hal_gpio.c: 28:     if(((void*)0) == _pin_config || _pin_config->pin > 
      +                          8 -1)
  4607   001224  5001               	movf	gpio_pin_direction_initialize@_pin_config^0,w,c
  4608   001226  B4D8               	btfsc	status,2,c
  4609   001228  EF18  F009         	goto	u3461
  4610   00122C  EF1A  F009         	goto	u3460
  4611   001230                     u3461:
  4612   001230  EF2A  F009         	goto	l4034
  4613   001234                     u3460:
  4614   001234  5001               	movf	gpio_pin_direction_initialize@_pin_config^0,w,c
  4615   001236  6ED9               	movwf	fsr2l,c
  4616   001238  6ADA               	clrf	fsr2h,c
  4617   00123A  30DF               	rrcf	223,w,c
  4618   00123C  32E8               	rrcf	wreg,f,c
  4619   00123E  32E8               	rrcf	wreg,f,c
  4620   001240  0B07               	andlw	7
  4621   001242  6E02               	movwf	??_gpio_pin_direction_initialize^0,c
  4622   001244  0E07               	movlw	7
  4623   001246  6402               	cpfsgt	??_gpio_pin_direction_initialize^0,c
  4624   001248  EF28  F009         	goto	u3471
  4625   00124C  EF2A  F009         	goto	u3470
  4626   001250                     u3471:
  4627   001250  EF81  F009         	goto	l4042
  4628   001254                     u3470:
  4629   001254                     l4034:
  4630                           
  4631                           ;MCAL_layer/GPIO/hal_gpio.c: 29:     {;MCAL_layer/GPIO/hal_gpio.c: 30:         ret = (St
      +                          d_ReturnType) 0x00;
  4632   001254  0E00               	movlw	0
  4633   001256  6E07               	movwf	gpio_pin_direction_initialize@ret^0,c
  4634                           
  4635                           ;MCAL_layer/GPIO/hal_gpio.c: 31:     }
  4636   001258  EFA1  F009         	goto	l4044
  4637   00125C                     l4036:
  4638                           
  4639                           ;MCAL_layer/GPIO/hal_gpio.c: 37:                 (*tris_registers[_pin_config->port] &= 
      +                          ~((uint8)1 << _pin_config->pin));
  4640   00125C  5001               	movf	gpio_pin_direction_initialize@_pin_config^0,w,c
  4641   00125E  6ED9               	movwf	fsr2l,c
  4642   001260  6ADA               	clrf	fsr2h,c
  4643   001262  30DF               	rrcf	223,w,c
  4644   001264  32E8               	rrcf	wreg,f,c
  4645   001266  32E8               	rrcf	wreg,f,c
  4646   001268  0B07               	andlw	7
  4647   00126A  6E02               	movwf	??_gpio_pin_direction_initialize^0,c
  4648   00126C  0E01               	movlw	1
  4649   00126E  6E03               	movwf	(??_gpio_pin_direction_initialize+1)^0,c
  4650   001270  2A02               	incf	??_gpio_pin_direction_initialize^0,f,c
  4651   001272  EF3D  F009         	goto	u3484
  4652   001276                     u3485:
  4653   001276  90D8               	bcf	status,0,c
  4654   001278  3603               	rlcf	(??_gpio_pin_direction_initialize+1)^0,f,c
  4655   00127A                     u3484:
  4656   00127A  2E02               	decfsz	??_gpio_pin_direction_initialize^0,f,c
  4657   00127C  EF3B  F009         	goto	u3485
  4658   001280  5003               	movf	(??_gpio_pin_direction_initialize+1)^0,w,c
  4659   001282  0AFF               	xorlw	255
  4660   001284  6E04               	movwf	(??_gpio_pin_direction_initialize+2)^0,c
  4661   001286  5001               	movf	gpio_pin_direction_initialize@_pin_config^0,w,c
  4662   001288  6ED9               	movwf	fsr2l,c
  4663   00128A  6ADA               	clrf	fsr2h,c
  4664   00128C  50DF               	movf	223,w,c
  4665   00128E  0B07               	andlw	7
  4666   001290  0D02               	mullw	2
  4667   001292  50F3               	movf	243,w,c
  4668   001294  0F63               	addlw	low _tris_registers
  4669   001296  6ED9               	movwf	fsr2l,c
  4670   001298  6ADA               	clrf	fsr2h,c
  4671   00129A  CFDE F005          	movff	postinc2,??_gpio_pin_direction_initialize+3
  4672   00129E  CFDD F006          	movff	postdec2,??_gpio_pin_direction_initialize+4
  4673   0012A2  C005  FFD9         	movff	??_gpio_pin_direction_initialize+3,fsr2l
  4674   0012A6  C006  FFDA         	movff	??_gpio_pin_direction_initialize+4,fsr2h
  4675   0012AA  5004               	movf	(??_gpio_pin_direction_initialize+2)^0,w,c
  4676   0012AC  16DF               	andwf	indf2,f,c
  4677                           
  4678                           ;MCAL_layer/GPIO/hal_gpio.c: 38:                 break;
  4679   0012AE  EFA1  F009         	goto	l4044
  4680   0012B2                     l4038:
  4681                           
  4682                           ;MCAL_layer/GPIO/hal_gpio.c: 40:                 (*tris_registers[_pin_config->port] |= 
      +                          ((uint8)1 << _pin_config->pin));
  4683   0012B2  5001               	movf	gpio_pin_direction_initialize@_pin_config^0,w,c
  4684   0012B4  6ED9               	movwf	fsr2l,c
  4685   0012B6  6ADA               	clrf	fsr2h,c
  4686   0012B8  30DF               	rrcf	223,w,c
  4687   0012BA  32E8               	rrcf	wreg,f,c
  4688   0012BC  32E8               	rrcf	wreg,f,c
  4689   0012BE  0B07               	andlw	7
  4690   0012C0  6E02               	movwf	??_gpio_pin_direction_initialize^0,c
  4691   0012C2  0E01               	movlw	1
  4692   0012C4  6E03               	movwf	(??_gpio_pin_direction_initialize+1)^0,c
  4693   0012C6  2A02               	incf	??_gpio_pin_direction_initialize^0,f,c
  4694   0012C8  EF68  F009         	goto	u3494
  4695   0012CC                     u3495:
  4696   0012CC  90D8               	bcf	status,0,c
  4697   0012CE  3603               	rlcf	(??_gpio_pin_direction_initialize+1)^0,f,c
  4698   0012D0                     u3494:
  4699   0012D0  2E02               	decfsz	??_gpio_pin_direction_initialize^0,f,c
  4700   0012D2  EF66  F009         	goto	u3495
  4701   0012D6  5001               	movf	gpio_pin_direction_initialize@_pin_config^0,w,c
  4702   0012D8  6ED9               	movwf	fsr2l,c
  4703   0012DA  6ADA               	clrf	fsr2h,c
  4704   0012DC  50DF               	movf	223,w,c
  4705   0012DE  0B07               	andlw	7
  4706   0012E0  0D02               	mullw	2
  4707   0012E2  50F3               	movf	243,w,c
  4708   0012E4  0F63               	addlw	low _tris_registers
  4709   0012E6  6ED9               	movwf	fsr2l,c
  4710   0012E8  6ADA               	clrf	fsr2h,c
  4711   0012EA  CFDE F004          	movff	postinc2,??_gpio_pin_direction_initialize+2
  4712   0012EE  CFDD F005          	movff	postdec2,??_gpio_pin_direction_initialize+3
  4713   0012F2  C004  FFD9         	movff	??_gpio_pin_direction_initialize+2,fsr2l
  4714   0012F6  C005  FFDA         	movff	??_gpio_pin_direction_initialize+3,fsr2h
  4715   0012FA  5003               	movf	(??_gpio_pin_direction_initialize+1)^0,w,c
  4716   0012FC  12DF               	iorwf	indf2,f,c
  4717                           
  4718                           ;MCAL_layer/GPIO/hal_gpio.c: 41:                 break;
  4719   0012FE  EFA1  F009         	goto	l4044
  4720   001302                     l4042:
  4721   001302  5001               	movf	gpio_pin_direction_initialize@_pin_config^0,w,c
  4722   001304  6ED9               	movwf	fsr2l,c
  4723   001306  6ADA               	clrf	fsr2h,c
  4724   001308  BCDF               	btfsc	indf2,6,c
  4725   00130A  EF89  F009         	goto	u3501
  4726   00130E  EF8C  F009         	goto	u3500
  4727   001312                     u3501:
  4728   001312  0E01               	movlw	1
  4729   001314  EF8D  F009         	goto	u3510
  4730   001318                     u3500:
  4731   001318  0E00               	movlw	0
  4732   00131A                     u3510:
  4733   00131A  6E02               	movwf	??_gpio_pin_direction_initialize^0,c
  4734   00131C  6A03               	clrf	(??_gpio_pin_direction_initialize+1)^0,c
  4735                           
  4736                           ; Switch on 2 bytes has been partitioned into a top level switch of size 1, and 1 sub-sw
      +                          itches
  4737                           ; Switch size 1, requested type "simple"
  4738                           ; Number of cases is 1, Range of values is 0 to 0
  4739                           ; switch strategies available:
  4740                           ; Name         Instructions Cycles
  4741                           ; simple_byte            4     3 (average)
  4742                           ;	Chosen strategy is simple_byte
  4743   00131E  5003               	movf	(??_gpio_pin_direction_initialize+1)^0,w,c
  4744   001320  0A00               	xorlw	0	; case 0
  4745   001322  B4D8               	btfsc	status,2,c
  4746   001324  EF96  F009         	goto	l5014
  4747   001328  EF2A  F009         	goto	l4034
  4748   00132C                     l5014:
  4749                           
  4750                           ; Switch size 1, requested type "simple"
  4751                           ; Number of cases is 2, Range of values is 0 to 1
  4752                           ; switch strategies available:
  4753                           ; Name         Instructions Cycles
  4754                           ; simple_byte            7     4 (average)
  4755                           ;	Chosen strategy is simple_byte
  4756   00132C  5002               	movf	??_gpio_pin_direction_initialize^0,w,c
  4757   00132E  0A00               	xorlw	0	; case 0
  4758   001330  B4D8               	btfsc	status,2,c
  4759   001332  EF2E  F009         	goto	l4036
  4760   001336  0A01               	xorlw	1	; case 1
  4761   001338  B4D8               	btfsc	status,2,c
  4762   00133A  EF59  F009         	goto	l4038
  4763   00133E  EF2A  F009         	goto	l4034
  4764   001342                     l4044:
  4765                           
  4766                           ;MCAL_layer/GPIO/hal_gpio.c: 45:     return ret;
  4767   001342  5007               	movf	gpio_pin_direction_initialize@ret^0,w,c
  4768   001344  0012               	return		;funcret
  4769   001346                     __end_of_gpio_pin_direction_initialize:
  4770                           	callstack 0
  4771                           
  4772                           	psect	rparam
  4773   000000                     
  4774                           	psect	config
  4775                           
  4776                           ; Padding undefined space
  4777   300000                     	org	3145728
  4778   300000  FF                 	db	255
  4779                           
  4780                           ;Config register CONFIG1H @ 0x300001
  4781                           ;	Oscillator Selection bits
  4782                           ;	OSC = HS, HS oscillator
  4783                           ;	Fail-Safe Clock Monitor Enable bit
  4784                           ;	FCMEN = OFF, Fail-Safe Clock Monitor disabled
  4785                           ;	Internal/External Oscillator Switchover bit
  4786                           ;	IESO = OFF, Oscillator Switchover mode disabled
  4787   300001                     	org	3145729
  4788   300001  02                 	db	2
  4789                           
  4790                           ;Config register CONFIG2L @ 0x300002
  4791                           ;	Power-up Timer Enable bit
  4792                           ;	PWRT = OFF, PWRT disabled
  4793                           ;	Brown-out Reset Enable bits
  4794                           ;	BOREN = OFF, Brown-out Reset disabled in hardware and software
  4795                           ;	Brown Out Reset Voltage bits
  4796                           ;	BORV = 1, 
  4797   300002                     	org	3145730
  4798   300002  09                 	db	9
  4799                           
  4800                           ;Config register CONFIG2H @ 0x300003
  4801                           ;	Watchdog Timer Enable bit
  4802                           ;	WDT = OFF, WDT disabled (control is placed on the SWDTEN bit)
  4803                           ;	Watchdog Timer Postscale Select bits
  4804                           ;	WDTPS = 512, 1:512
  4805   300003                     	org	3145731
  4806   300003  12                 	db	18
  4807                           
  4808                           ; Padding undefined space
  4809   300004                     	org	3145732
  4810   300004  FF                 	db	255
  4811                           
  4812                           ;Config register CONFIG3H @ 0x300005
  4813                           ;	CCP2 MUX bit
  4814                           ;	CCP2MX = PORTC, CCP2 input/output is multiplexed with RC1
  4815                           ;	PORTB A/D Enable bit
  4816                           ;	PBADEN = OFF, PORTB<4:0> pins are configured as digital I/O on Reset
  4817                           ;	Low-Power Timer1 Oscillator Enable bit
  4818                           ;	LPT1OSC = OFF, Timer1 configured for higher power operation
  4819                           ;	MCLR Pin Enable bit
  4820                           ;	MCLRE = ON, MCLR pin enabled; RE3 input pin disabled
  4821   300005                     	org	3145733
  4822   300005  81                 	db	129
  4823                           
  4824                           ;Config register CONFIG4L @ 0x300006
  4825                           ;	Stack Full/Underflow Reset Enable bit
  4826                           ;	STVREN = ON, Stack full/underflow will cause Reset
  4827                           ;	Single-Supply ICSP Enable bit
  4828                           ;	LVP = OFF, Single-Supply ICSP disabled
  4829                           ;	Extended Instruction Set Enable bit
  4830                           ;	XINST = OFF, Instruction set extension and Indexed Addressing mode disabled (Legacy mo
      +                          de)
  4831                           ;	Background Debugger Enable bit
  4832                           ;	DEBUG = 0x1, unprogrammed default
  4833   300006                     	org	3145734
  4834   300006  81                 	db	129
  4835                           
  4836                           ; Padding undefined space
  4837   300007                     	org	3145735
  4838   300007  FF                 	db	255
  4839                           
  4840                           ;Config register CONFIG5L @ 0x300008
  4841                           ;	Code Protection bit
  4842                           ;	CP0 = OFF, Block 0 (000800-003FFFh) not code-protected
  4843                           ;	Code Protection bit
  4844                           ;	CP1 = OFF, Block 1 (004000-007FFFh) not code-protected
  4845                           ;	Code Protection bit
  4846                           ;	CP2 = OFF, Block 2 (008000-00BFFFh) not code-protected
  4847                           ;	Code Protection bit
  4848                           ;	CP3 = OFF, Block 3 (00C000-00FFFFh) not code-protected
  4849   300008                     	org	3145736
  4850   300008  0F                 	db	15
  4851                           
  4852                           ;Config register CONFIG5H @ 0x300009
  4853                           ;	Boot Block Code Protection bit
  4854                           ;	CPB = OFF, Boot block (000000-0007FFh) not code-protected
  4855                           ;	Data EEPROM Code Protection bit
  4856                           ;	CPD = OFF, Data EEPROM not code-protected
  4857   300009                     	org	3145737
  4858   300009  C0                 	db	192
  4859                           
  4860                           ;Config register CONFIG6L @ 0x30000A
  4861                           ;	Write Protection bit
  4862                           ;	WRT0 = OFF, Block 0 (000800-003FFFh) not write-protected
  4863                           ;	Write Protection bit
  4864                           ;	WRT1 = OFF, Block 1 (004000-007FFFh) not write-protected
  4865                           ;	Write Protection bit
  4866                           ;	WRT2 = OFF, Block 2 (008000-00BFFFh) not write-protected
  4867                           ;	Write Protection bit
  4868                           ;	WRT3 = OFF, Block 3 (00C000-00FFFFh) not write-protected
  4869   30000A                     	org	3145738
  4870   30000A  0F                 	db	15
  4871                           
  4872                           ;Config register CONFIG6H @ 0x30000B
  4873                           ;	Configuration Register Write Protection bit
  4874                           ;	WRTC = OFF, Configuration registers (300000-3000FFh) not write-protected
  4875                           ;	Boot Block Write Protection bit
  4876                           ;	WRTB = OFF, Boot Block (000000-0007FFh) not write-protected
  4877                           ;	Data EEPROM Write Protection bit
  4878                           ;	WRTD = OFF, Data EEPROM not write-protected
  4879   30000B                     	org	3145739
  4880   30000B  E0                 	db	224
  4881                           
  4882                           ;Config register CONFIG7L @ 0x30000C
  4883                           ;	Table Read Protection bit
  4884                           ;	EBTR0 = OFF, Block 0 (000800-003FFFh) not protected from table reads executed in other
      +                           blocks
  4885                           ;	Table Read Protection bit
  4886                           ;	EBTR1 = OFF, Block 1 (004000-007FFFh) not protected from table reads executed in other
      +                           blocks
  4887                           ;	Table Read Protection bit
  4888                           ;	EBTR2 = OFF, Block 2 (008000-00BFFFh) not protected from table reads executed in other
      +                           blocks
  4889                           ;	Table Read Protection bit
  4890                           ;	EBTR3 = OFF, Block 3 (00C000-00FFFFh) not protected from table reads executed in other
      +                           blocks
  4891   30000C                     	org	3145740
  4892   30000C  0F                 	db	15
  4893                           
  4894                           ;Config register CONFIG7H @ 0x30000D
  4895                           ;	Boot Block Table Read Protection bit
  4896                           ;	EBTRB = OFF, Boot Block (000000-0007FFh) not protected from table reads executed in ot
      +                          her blocks
  4897   30000D                     	org	3145741
  4898   30000D  40                 	db	64
  4899                           tosu	equ	0xFFF
  4900                           tosh	equ	0xFFE
  4901                           tosl	equ	0xFFD
  4902                           stkptr	equ	0xFFC
  4903                           pclatu	equ	0xFFB
  4904                           pclath	equ	0xFFA
  4905                           pcl	equ	0xFF9
  4906                           tblptru	equ	0xFF8
  4907                           tblptrh	equ	0xFF7
  4908                           tblptrl	equ	0xFF6
  4909                           tablat	equ	0xFF5
  4910                           prodh	equ	0xFF4
  4911                           prodl	equ	0xFF3
  4912                           indf0	equ	0xFEF
  4913                           postinc0	equ	0xFEE
  4914                           postdec0	equ	0xFED
  4915                           preinc0	equ	0xFEC
  4916                           plusw0	equ	0xFEB
  4917                           fsr0h	equ	0xFEA
  4918                           fsr0l	equ	0xFE9
  4919                           wreg	equ	0xFE8
  4920                           indf1	equ	0xFE7
  4921                           postinc1	equ	0xFE6
  4922                           postdec1	equ	0xFE5
  4923                           preinc1	equ	0xFE4
  4924                           plusw1	equ	0xFE3
  4925                           fsr1h	equ	0xFE2
  4926                           fsr1l	equ	0xFE1
  4927                           bsr	equ	0xFE0
  4928                           indf2	equ	0xFDF
  4929                           postinc2	equ	0xFDE
  4930                           postdec2	equ	0xFDD
  4931                           preinc2	equ	0xFDC
  4932                           plusw2	equ	0xFDB
  4933                           fsr2h	equ	0xFDA
  4934                           fsr2l	equ	0xFD9
  4935                           status	equ	0xFD8

Data Sizes:
    Strings     85
    Constant    16
    Data        46
    BSS         72
    Persistent  0
    Stack       0

Auto Spaces:
    Space          Size  Autos    Used
    COMRAM          127     48     124
    BANK0           128      0      42
    BANK1           256      0       0
    BANK2           256      0       0
    BANK3           256      0       0
    BANK4           256      0       0
    BANK5           256      0       0
    BANK6           256      0       0
    BANK7           256      0       0
    BANK8           256      0       0
    BANK9           256      0       0
    BANK10          256      0       0
    BANK11          256      0       0
    BANK12          256      0       0
    BANK13          256      0       0
    BANK14          256      0       0
    BANK15          128      0       0

Pointer List with Targets:

    compare@_input	PTR unsigned char  size(1) Largest target is 6
		 -> input(COMRAM[6]), 

    compare@_password	PTR unsigned char  size(1) Largest target is 6
		 -> password(COMRAM[6]), 

    convert_uint8_to_string@str	PTR unsigned char  size(1) Largest target is 4
		 -> tries_txt(COMRAM[4]), 

    f$.$buffer	PTR unsigned char  size(2) Largest target is 0

    f$.$source	PTR const unsigned char  size(2) Largest target is 0

    fputc@fp	PTR struct _IO_FILE size(1) Largest target is 12
		 -> sprintf@f(COMRAM[12]), 

    fputc@fp$.$buffer	PTR unsigned char  size(2) Largest target is 0

    fputc@fp$.$source	PTR const unsigned char  size(2) Largest target is 0

    gpio_pin_direction_initialize@_pin_config	PTR const struct . size(1) Largest target is 8
		 -> dc_motor_intitialize@obj1(COMRAM[1]), dc_motor_intitialize@obj2(COMRAM[1]), keypad(COMRAM[8]), keypad$keypad_columns_pin(COMRAM[4]), 
		 -> keypad$keypad_rows_pin(COMRAM[4]), lcd(COMRAM[6]), lcd$lcd_data(COMRAM[4]), led_initialize@obj(COMRAM[1]), 
		 -> Relay_initialize@obj(COMRAM[1]), 

    gpio_pin_initialize@_pin_config	PTR const struct . size(1) Largest target is 8
		 -> dc_motor_intitialize@obj1(COMRAM[1]), dc_motor_intitialize@obj2(COMRAM[1]), keypad(COMRAM[8]), keypad$keypad_rows_pin(COMRAM[4]), 
		 -> lcd(COMRAM[6]), lcd$lcd_data(COMRAM[4]), led_initialize@obj(COMRAM[1]), Relay_initialize@obj(COMRAM[1]), 

    gpio_pin_read_logic@_pin_config	PTR const struct . size(1) Largest target is 8
		 -> keypad(COMRAM[8]), keypad$keypad_columns_pin(COMRAM[4]), 

    gpio_pin_read_logic@logic	PTR enum E2978 size(1) Largest target is 1
		 -> Button_read@button_logic(COMRAM[1]), keypad_get_value@column_logic(COMRAM[1]), 

    gpio_pin_write_logic@_pin_config	PTR const struct . size(1) Largest target is 8
		 -> dc_motor_intitialize@obj1(COMRAM[1]), dc_motor_intitialize@obj2(COMRAM[1]), dc_motor_move_left@obj1(COMRAM[1]), dc_motor_move_left@obj2(COMRAM[1]), 
		 -> dc_motor_move_right@obj1(COMRAM[1]), dc_motor_move_right@obj2(COMRAM[1]), dc_motor_stop@obj1(COMRAM[1]), dc_motor_stop@obj2(COMRAM[1]), 
		 -> keypad(COMRAM[8]), keypad$keypad_rows_pin(COMRAM[4]), lcd(COMRAM[6]), lcd$lcd_data(COMRAM[4]), 
		 -> led_initialize@obj(COMRAM[1]), led_turn_off@obj(COMRAM[1]), led_turn_on@obj(COMRAM[1]), Relay_initialize@obj(COMRAM[1]), 
		 -> Relay_turn_off@obj(COMRAM[1]), Relay_turn_on@obj(COMRAM[1]), 

    keypad_get_value@_keypad_obj	PTR const struct . size(1) Largest target is 8
		 -> keypad(COMRAM[8]), 

    keypad_get_value@value	PTR unsigned char  size(1) Largest target is 6
		 -> input(COMRAM[6]), password(COMRAM[6]), 

    keypad_initialize@kpd	PTR const struct . size(1) Largest target is 8
		 -> keypad(COMRAM[8]), 

    lat_registers	PTR volatile unsigned char [5] size(2) Largest target is 1
		 -> LATA(BITBIGSFRll[1]), LATB(BITBIGSFRlh[1]), LATC(BITBIGSFRlh[1]), LATD(BITBIGSFRlh[1]), 
		 -> LATE(BITBIGSFRlh[1]), 

    lcd_4bit_initialize@lcd	PTR const struct . size(1) Largest target is 6
		 -> lcd(COMRAM[6]), 

    lcd_4bit_send_char_data@lcd	PTR const struct . size(1) Largest target is 6
		 -> lcd(COMRAM[6]), 

    lcd_4bit_send_char_data_pos@lcd	PTR const struct . size(1) Largest target is 6
		 -> lcd(COMRAM[6]), 

    lcd_4bit_send_command@lcd	PTR const struct . size(1) Largest target is 6
		 -> lcd(COMRAM[6]), 

    lcd_4bit_send_enable_signal@lcd	PTR const struct . size(1) Largest target is 6
		 -> lcd(COMRAM[6]), 

    lcd_4bit_send_string@lcd	PTR const struct . size(1) Largest target is 6
		 -> lcd(COMRAM[6]), 

    lcd_4bit_send_string@str	PTR unsigned char  size(2) Largest target is 18
		 -> STR_1(CODE[8]), STR_2(CODE[8]), STR_3(CODE[6]), STR_4(CODE[11]), 
		 -> STR_5(CODE[16]), STR_6(CODE[15]), STR_7(CODE[18]), tries_txt(COMRAM[4]), 

    lcd_4bit_send_string_pos@lcd	PTR const struct . size(1) Largest target is 6
		 -> lcd(COMRAM[6]), 

    lcd_4bit_send_string_pos@str	PTR unsigned char  size(2) Largest target is 11
		 -> STR_1(CODE[8]), STR_2(CODE[8]), STR_3(CODE[6]), STR_4(CODE[11]), 
		 -> tries_txt(COMRAM[4]), 

    lcd_4bit_set_cursor@lcd	PTR const struct . size(1) Largest target is 6
		 -> lcd(COMRAM[6]), 

    lcd_send_4bits@lcd	PTR const struct . size(1) Largest target is 6
		 -> lcd(COMRAM[6]), 

    memset@dest	PTR void  size(1) Largest target is 6
		 -> input(COMRAM[6]), tries_txt(COMRAM[4]), 

    memset@p	PTR unsigned char  size(1) Largest target is 6
		 -> input(COMRAM[6]), tries_txt(COMRAM[4]), 

    port_registers	PTR volatile unsigned char [5] size(2) Largest target is 1
		 -> PORTA(BITBIGSFRll[1]), PORTB(BITBIGSFRll[1]), PORTC(BITBIGSFRll[1]), PORTD(BITBIGSFRll[1]), 
		 -> PORTE(BITBIGSFRll[1]), 

    read_input@flag	PTR unsigned char  size(1) Largest target is 4
		 -> flag(COMRAM[4]), 

    read_input@input	PTR unsigned char  size(1) Largest target is 6
		 -> input(COMRAM[6]), password(COMRAM[6]), 

    S1430$buffer	PTR unsigned char  size(2) Largest target is 0

    S1430$source	PTR const unsigned char  size(2) Largest target is 0

    sp__memset	PTR void  size(1) Largest target is 6
		 -> input(COMRAM[6]), tries_txt(COMRAM[4]), 

    sprintf@ap	PTR void [1] size(1) Largest target is 2
		 -> ?_sprintf(COMRAM[2]), 

    sprintf@fmt	PTR const unsigned char  size(1) Largest target is 3
		 -> STR_10(CODE[3]), STR_8(CODE[3]), STR_9(CODE[3]), 

    sprintf@s	PTR unsigned char  size(1) Largest target is 4
		 -> tries_txt(COMRAM[4]), 

    tris_registers	PTR volatile unsigned char [5] size(2) Largest target is 1
		 -> TRISA(BITBIGSFRll[1]), TRISB(BITBIGSFRh[1]), TRISC(BITBIGSFRh[1]), TRISD(BITBIGSFRh[1]), 
		 -> TRISE(BITBIGSFRh[1]), 

    vfpfcnvrt@ap	PTR PTR void  size(1) Largest target is 1
		 -> sprintf@ap(COMRAM[1]), 

    vfpfcnvrt@cp	PTR unsigned char  size(1) Largest target is 3
		 -> STR_10(CODE[3]), STR_8(CODE[3]), STR_9(CODE[3]), 

    vfpfcnvrt@fmt	PTR PTR unsigned char  size(1) Largest target is 1
		 -> vfprintf@cfmt(COMRAM[1]), 

    vfpfcnvrt@fp	PTR struct _IO_FILE size(1) Largest target is 12
		 -> sprintf@f(COMRAM[12]), 

    vfprintf@ap	PTR PTR void  size(1) Largest target is 1
		 -> sprintf@ap(COMRAM[1]), 

    vfprintf@cfmt	PTR unsigned char  size(1) Largest target is 3
		 -> STR_10(CODE[3]), STR_8(CODE[3]), STR_9(CODE[3]), 

    vfprintf@fmt	PTR const unsigned char  size(1) Largest target is 3
		 -> STR_10(CODE[3]), STR_8(CODE[3]), STR_9(CODE[3]), 

    vfprintf@fp	PTR struct _IO_FILE size(1) Largest target is 12
		 -> sprintf@f(COMRAM[12]), 


Critical Paths under _main in COMRAM

    _main->_convert_uint8_to_string
    _set_password->_read_input
    _enter_password->_read_inputs
    _read_inputs->_read_input
    _read_input->_lcd_4bit_send_char_data_pos
    _lcd_4bit_send_char_data_pos->_lcd_4bit_set_cursor
    _keypad_get_value->_gpio_pin_write_logic
    _convert_uint8_to_string->_sprintf
    _sprintf->_vfprintf
    _vfprintf->_vfpfcnvrt
    _vfpfcnvrt->_abs
    _abs->___awmod
    _compare->_lcd_4bit_send_string_pos
    _lcd_4bit_send_string_pos->_lcd_4bit_set_cursor
    _lcd_4bit_set_cursor->_lcd_4bit_send_command
    _lcd_4bit_send_string->_lcd_4bit_send_char_data
    _lcd_4bit_send_char_data->_lcd_send_4bits
    _clear_lcd->_lcd_4bit_send_command
    _ecu_layer_initailize->_lcd_4bit_initialize
    _lcd_4bit_initialize->_lcd_4bit_send_command
    _lcd_4bit_send_command->_lcd_send_4bits
    _lcd_send_4bits->_gpio_pin_write_logic
    _lcd_4bit_send_enable_signal->_gpio_pin_write_logic
    _keypad_initialize->_gpio_pin_initialize
    _gpio_pin_initialize->_gpio_pin_write_logic

Critical Paths under _main in BANK0

    None.

Critical Paths under _main in BANK1

    None.

Critical Paths under _main in BANK2

    None.

Critical Paths under _main in BANK3

    None.

Critical Paths under _main in BANK4

    None.

Critical Paths under _main in BANK5

    None.

Critical Paths under _main in BANK6

    None.

Critical Paths under _main in BANK7

    None.

Critical Paths under _main in BANK8

    None.

Critical Paths under _main in BANK9

    None.

Critical Paths under _main in BANK10

    None.

Critical Paths under _main in BANK11

    None.

Critical Paths under _main in BANK12

    None.

Critical Paths under _main in BANK13

    None.

Critical Paths under _main in BANK14

    None.

Critical Paths under _main in BANK15

    None.

Call Graph Tables:

 ---------------------------------------------------------------------------------
 (Depth) Function   	        Calls       Base Space   Used Autos Params    Refs
 ---------------------------------------------------------------------------------
 (0) _main                                                 4     4      0  372799
                                             45 COMRAM     3     3      0
             _application_initialize
                          _clear_lcd
                            _compare
            _convert_uint8_to_string
                     _enter_password
              _lcd_4bit_send_command
           _lcd_4bit_send_string_pos
                       _set_password
 ---------------------------------------------------------------------------------
 (1) _set_password                                         3     3      0   95042
                                             27 COMRAM     3     3      0
                          _clear_lcd
               _lcd_4bit_send_string
                         _read_input
 ---------------------------------------------------------------------------------
 (1) _enter_password                                       0     0      0   73815
               _lcd_4bit_send_string
                             _memset
                        _read_inputs
 ---------------------------------------------------------------------------------
 (2) _read_inputs                                          3     3      0   51994
                                             27 COMRAM     3     3      0
                         _read_input
 ---------------------------------------------------------------------------------
 (2) _read_input                                           2     0      2   51864
                                             25 COMRAM     2     0      2
                   _keypad_get_value
        _lcd_4bit_send_char_data_pos
 ---------------------------------------------------------------------------------
 (3) _lcd_4bit_send_char_data_pos                          5     1      4   44105
                                             20 COMRAM     5     1      4
            _lcd_4bit_send_char_data
                _lcd_4bit_set_cursor
 ---------------------------------------------------------------------------------
 (3) _keypad_get_value                                     8     6      2    7244
                                              8 COMRAM     7     5      2
                _gpio_pin_read_logic
               _gpio_pin_write_logic
 ---------------------------------------------------------------------------------
 (4) _gpio_pin_read_logic                                  7     5      2     583
                                              0 COMRAM     7     5      2
 ---------------------------------------------------------------------------------
 (1) _convert_uint8_to_string                              3     2      1    4787
                                             42 COMRAM     3     2      1
                             _memset
                            _sprintf
 ---------------------------------------------------------------------------------
 (2) _sprintf                                             19    15      4    3591
                                             25 COMRAM    17    13      4
                           _vfprintf
 ---------------------------------------------------------------------------------
 (3) _vfprintf                                             4     1      3    2936
                                             21 COMRAM     4     1      3
                          _vfpfcnvrt
 ---------------------------------------------------------------------------------
 (4) _vfpfcnvrt                                           11     8      3    2586
                                             10 COMRAM    11     8      3
                            ___awdiv
                            ___awmod
                                _abs
                              _fputc
 ---------------------------------------------------------------------------------
 (5) _fputc                                                8     5      3     782
                                              0 COMRAM     8     5      3
                              _putch
 ---------------------------------------------------------------------------------
 (6) _putch                                                1     1      0       0
 ---------------------------------------------------------------------------------
 (5) _abs                                                  4     2      2     142
                                              6 COMRAM     4     2      2
                            ___awmod (ARG)
 ---------------------------------------------------------------------------------
 (5) ___awmod                                              6     2      4     448
                                              0 COMRAM     6     2      4
 ---------------------------------------------------------------------------------
 (5) ___awdiv                                              8     4      4     452
                                              0 COMRAM     8     4      4
 ---------------------------------------------------------------------------------
 (2) _memset                                               6     1      5    1008
                                              0 COMRAM     6     1      5
 ---------------------------------------------------------------------------------
 (1) _compare                                              6     4      2   68812
                                             26 COMRAM     6     4      2
                          _clear_lcd
           _lcd_4bit_send_string_pos
 ---------------------------------------------------------------------------------
 (1) _lcd_4bit_send_string_pos                             6     1      5   46134
                                             20 COMRAM     6     1      5
               _lcd_4bit_send_string
                _lcd_4bit_set_cursor
 ---------------------------------------------------------------------------------
 (4) _lcd_4bit_set_cursor                                  6     3      3   23199
                                             14 COMRAM     6     3      3
              _lcd_4bit_send_command
 ---------------------------------------------------------------------------------
 (2) _lcd_4bit_send_string                                 4     1      3   20813
                                             14 COMRAM     4     1      3
            _lcd_4bit_send_char_data
 ---------------------------------------------------------------------------------
 (4) _lcd_4bit_send_char_data                              3     1      2   19895
                                             11 COMRAM     3     1      2
               _gpio_pin_write_logic
        _lcd_4bit_send_enable_signal
                     _lcd_send_4bits
 ---------------------------------------------------------------------------------
 (2) _clear_lcd                                            0     0      0   22235
              _lcd_4bit_send_command
 ---------------------------------------------------------------------------------
 (1) _application_initialize                               0     0      0   39687
               _ecu_layer_initailize
 ---------------------------------------------------------------------------------
 (2) _ecu_layer_initailize                                 1     1      0   39687
                  _keypad_initialize
                _lcd_4bit_initialize
 ---------------------------------------------------------------------------------
 (3) _lcd_4bit_initialize                                  4     3      1   30812
                                             14 COMRAM     4     3      1
                _gpio_pin_initialize
              _lcd_4bit_send_command
 ---------------------------------------------------------------------------------
 (5) _lcd_4bit_send_command                                3     1      2   22235
                                             11 COMRAM     3     1      2
               _gpio_pin_write_logic
        _lcd_4bit_send_enable_signal
                     _lcd_send_4bits
 ---------------------------------------------------------------------------------
 (6) _lcd_send_4bits                                       3     1      2    6885
                                              8 COMRAM     3     1      2
               _gpio_pin_write_logic
 ---------------------------------------------------------------------------------
 (6) _lcd_4bit_send_enable_signal                          2     1      1    6333
                                              8 COMRAM     2     1      1
               _gpio_pin_write_logic
 ---------------------------------------------------------------------------------
 (3) _keypad_initialize                                    3     2      1    8866
                                             11 COMRAM     3     2      1
      _gpio_pin_direction_initialize
                _gpio_pin_initialize
 ---------------------------------------------------------------------------------
 (4) _gpio_pin_initialize                                  3     2      1    7912
                                              8 COMRAM     3     2      1
      _gpio_pin_direction_initialize
               _gpio_pin_write_logic
 ---------------------------------------------------------------------------------
 (7) _gpio_pin_write_logic                                 8     6      2    5837
                                              0 COMRAM     8     6      2
 ---------------------------------------------------------------------------------
 (5) _gpio_pin_direction_initialize                        7     6      1     527
                                              0 COMRAM     7     6      1
 ---------------------------------------------------------------------------------
 Estimated maximum stack depth 7
 ---------------------------------------------------------------------------------

 Call Graph Graphs:

 _main (ROOT)
   _application_initialize
     _ecu_layer_initailize
       _keypad_initialize
         _gpio_pin_direction_initialize
         _gpio_pin_initialize
           _gpio_pin_direction_initialize
           _gpio_pin_write_logic
       _lcd_4bit_initialize
         _gpio_pin_initialize
         _lcd_4bit_send_command
           _gpio_pin_write_logic
           _lcd_4bit_send_enable_signal
             _gpio_pin_write_logic
           _lcd_send_4bits
             _gpio_pin_write_logic
   _clear_lcd
     _lcd_4bit_send_command
   _compare
     _clear_lcd
     _lcd_4bit_send_string_pos
       _lcd_4bit_send_string
         _lcd_4bit_send_char_data
           _gpio_pin_write_logic
           _lcd_4bit_send_enable_signal
           _lcd_send_4bits
       _lcd_4bit_set_cursor
         _lcd_4bit_send_command
   _convert_uint8_to_string
     _memset
     _sprintf
       _vfprintf
         _vfpfcnvrt
           ___awdiv
           ___awmod
           _abs
             ___awmod (ARG)
           _fputc
             _putch
   _enter_password
     _lcd_4bit_send_string
     _memset
     _read_inputs
       _read_input
         _keypad_get_value
           _gpio_pin_read_logic
           _gpio_pin_write_logic
         _lcd_4bit_send_char_data_pos
           _lcd_4bit_send_char_data
           _lcd_4bit_set_cursor
   _lcd_4bit_send_command
   _lcd_4bit_send_string_pos
   _set_password
     _clear_lcd
     _lcd_4bit_send_string
     _read_input

 Address spaces:
Name               Size   Autos  Total    Cost      Usage
BIGRAM             F7F      0       0      40        0.0%
EEDATA             400      0       0       0        0.0%
BITBANK14          100      0       0      32        0.0%
BANK14             100      0       0      33        0.0%
BITBANK13          100      0       0      30        0.0%
BANK13             100      0       0      31        0.0%
BITBANK12          100      0       0      28        0.0%
BANK12             100      0       0      29        0.0%
BITBANK11          100      0       0      26        0.0%
BANK11             100      0       0      27        0.0%
BITBANK10          100      0       0      24        0.0%
BANK10             100      0       0      25        0.0%
BITBANK9           100      0       0      22        0.0%
BANK9              100      0       0      23        0.0%
BITBANK8           100      0       0      20        0.0%
BANK8              100      0       0      21        0.0%
BITBANK7           100      0       0      18        0.0%
BANK7              100      0       0      19        0.0%
BITBANK6           100      0       0      16        0.0%
BANK6              100      0       0      17        0.0%
BITBANK5           100      0       0      14        0.0%
BANK5              100      0       0      15        0.0%
BITBANK4           100      0       0      12        0.0%
BANK4              100      0       0      13        0.0%
BITBANK3           100      0       0      10        0.0%
BANK3              100      0       0      11        0.0%
BITBANK2           100      0       0       8        0.0%
BANK2              100      0       0       9        0.0%
BITBANK1           100      0       0       6        0.0%
BANK1              100      0       0       7        0.0%
BITBANK15           80      0       0      34        0.0%
BANK15              80      0       0      35        0.0%
BITBANK0            80      0       0       4        0.0%
BANK0               80      0      2A       5       32.8%
BITCOMRAM           7F      0       0       0        0.0%
COMRAM              7F     30      7C       1       97.6%
BITBIGSFRh          69      0       0      36        0.0%
BITBIGSFRlh          4      0       0      37        0.0%
BITBIGSFRll          4      0       0      38        0.0%
BIGSFR               0      0       0     200        0.0%
BITSFR               0      0       0     200        0.0%
SFR                  0      0       0     200        0.0%
STACK                0      0       0       2        0.0%
NULL                 0      0       0       0        0.0%
ABS                  0      0      A6      39        0.0%
DATA                 0      0      A6       3        0.0%
CODE                 0      0       0       0        0.0%


Microchip Technology PIC18 Macro Assembler V2.45 build 20230818022343 
Symbol Table                                                                                   Sun Feb 11 06:10:10 2024

                                       _i 006D                           ?_lcd_send_4bits 0009  
                                      l96 1EC8                              ___awdiv@sign 0006  
                                     l101 1ECA                                       l115 161C  
                                     l232 1344                                       l251 1454  
                                     l430 203C                                       l272 1F28  
                                     l352 16F0                                       l425 153A  
                                     l258 1C0E                                       l442 1F84  
                                     l362 208E                                       l355 227E  
                                     l435 1FE0                                       l371 1D28  
                                     l540 1E06                                       l452 1CA4  
                                     l525 20DA                                       l365 1CA6  
                                     l391 218A                                       l545 2154  
                                     l394 225C                                       l459 1D98  
                                     l379 1A10                                       l388 17C4  
                                     l823 1954                                       l578 1890  
                                     l836 1AC0                                       l589 226E  
                    keypad_initialize@kpd 000C                      keypad_initialize@ret 000D  
                                     _abs 21C0                                       _lcd 0077  
     __end_of_lcd_4bit_send_enable_signal 2156               _lcd_4bit_send_enable_signal 211A  
                            ___awmod@sign 0006                       led_initialize@F3058 003C  
                                     wreg 0FE8                                      ?_abs 0007  
                                    l1320 2118                                      l1314 121E  
                                    l1324 21DA                                      l1350 2280  
                                    l3030 1068                                      l1327 21F2  
                                    l4000 1DAA                                      l3040 10AC  
                                    l3032 108A                                      l4010 212A  
                                    l4002 1DB2                                      l3050 111E  
                                    l3042 10C8                                      l3034 1092  
                                    l1339 1B6A                                      l4012 2132  
                                    l4004 1E04                                      l4020 1FE2  
                                    l4100 188E                                      l3060 119C  
                                    l3052 114E                                      l3044 10E4  
                                    l3036 109E                                      l1276 21BE  
                                    l3300 219C                                      l1269 2222  
                                    l4030 1220                                      l4110 1EDC  
                                    l4014 213E                                      l4022 1FF2  
                                    l3062 11AC                                      l3054 116A  
                                    l3046 10FC                                      l3070 11F0  
                                    l3038 10A2                                      l3302 21A4  
                                    l4032 1234                                      l4112 1EFC  
                                    l4016 2152                                      l4008 211A  
                                    l4024 1FFA                                      l3064 11BE  
                                    l3056 117C                                      l3048 1106  
                                    l3304 21B4                                      l4120 153C  
                                    l4042 1302                                      l4034 1254  
                                    l4114 1F04                                      l4210 1EC4  
                                    l4026 203A                                      l5010 1868  
                                    l3250 21FC                                      l3066 11D8  
                                    l3058 118C                                      l3074 11FC  
                                    l4122 155C                                      l4036 125C  
                                    l4044 1342                                      l5012 143C  
                                    l4116 1F26                                      l4108 1ECC  
                                    l4204 1EA6                                      l4300 1D74  
                                    l3252 2206                                      l3068 11DA  
                                    l3420 20A6                                      l4060 1BB8  
                                    l4052 1B6C                                      l4140 1586  
                                    l4132 1574                                      l4124 156C  
                                    l4220 2068                                      l5014 132C  
                                    l4038 12B2                                      l4206 1EB2  
                                    l4310 225E                                      l4070 1F9E  
                                    l4230 1C36                                      l4302 1D84  
                                    l3254 2208                                      l3190 2110  
                                    l3422 20AE                                      l4062 1C0C  
                                    l4054 1B80                                      l4142 1588  
                                    l4126 1570                                      l4222 2072  
                                    l4214 203E                                      l4208 1EB4  
                                    l4312 2266                                      l4072 1FDE  
                                    l4232 1C3E                                      l4080 17CC  
                                    l4304 1D96                                      l3248 21F4  
                                    l3184 20DC                                      l3424 20C6  
                                    l3416 2092                                      l4056 1B90  
                                    l4160 15F8                                      l4144 1598  
                                    l4224 208C                                      l4216 2046  
                                    l4320 1CAA                                      l4242 1456  
                                    l4066 1F86                                      l4234 1C6C  
                                    l4226 1C10                                      l4090 1818  
                                    l4082 17DC                                      l3186 20E4  
                                    l3426 20D8                                      l3418 2096  
                                    l4058 1BB0                                      l4162 15FA  
                                    l4154 15B8                                      l4146 15A6  
                                    l4138 1578                                      l4170 1F3A  
                                    l4218 2052                                      l4330 1CF4  
                                    l4322 1CBA                                      l4314 1CA6  
                                    l4260 14A4                                      l4244 1466  
                                    l4308 225E                                      l4412 227A  
                                    l4068 1F96                                      l4236 1C70  
                                    l4228 1C24                                      l4092 182C  
                                    l4084 17EC                                      l4076 17C6  
                                    l3188 20F4                                      l4164 160A  
                                    l4156 15C8                                      l4148 15B4  
                                    l4172 1F4A                                      l4332 1D04  
                                    l4324 1CD2                                      l4182 1E6A  
                                    l4270 14EE                                      l4262 14B4  
                                    l4254 1486                                      l4246 146E  
                                    l4238 1CA2                                      l4094 1840  
                                    l4086 17FC                                      l4078 17CA  
                                    l2910 1A30                                      l2902 1A12  
                                    l4166 160C                                      l4158 15D8  
                                    l4174 1F5A                                      l4334 1D14  
                                    l4326 1CD4                                      l4430 173A  
                                    l4414 16F4                                      l4192 1E86  
                                    l4184 1E7A                                      l4280 152A  
                                    l4272 14FA                                      l4264 14C0  
                                    l4256 1492                                      l4248 1482  
                                    l4088 1804                                      l2920 1A68  
                                    l2912 1A3E                                      l2904 1A16  
                                    l3296 218C                                      l4176 1F62  
                                    l4168 1F2A                                      l4328 1CE4  
                                    l4432 174A                                      l4424 1710  
                                    l4416 16F8                                      l4194 1E90  
                                    l4186 1E82                                      l4274 1506  
                                    l4266 14DC                                      l4258 1494  
                                    l4282 1538                                      l4098 1854  
                                    l4290 1D2A                                      l2922 1A76  
                                    l2930 1AA0                                      l2914 1A46  
                                    l2906 1A24                                      l3298 2194  
                                    l4178 1F82                                      l4338 1D24  
                                    l4450 2156                                      l4434 175A  
                                    l4442 178E                                      l4426 1720  
                                    l4418 170C                                      l4196 1E92  
                                    l4276 1512                                      l4268 14E2  
                                    l4292 1D3A                                      l2860 1896  
                                    l2932 1AB0                                      l2924 1A8C  
                                    l2916 1A58                                      l2908 1A2C  
                                    l2940 1AD2                                      l4452 215A  
                                    l4444 1796                                      l4436 176A  
                                    l4428 1738                                      l4198 1EA2  
                                    l4278 151E                                      l4286 2248  
                                    l4294 1D4C                                      l4470 198E  
                                    l2870 18C6                                      l2862 18A4  
                                    l2934 1AB8                                      l2926 1A94  
                                    l2918 1A60                                      l2942 1AE2  
                                    l4454 216E                                      l4446 179A  
                                    l4438 177A                                      l4288 2254  
                                    l4296 1D5C                                      l4480 19D6  
                                    l4472 199E                                      l4464 1962  
                                    l2880 18F4                                      l2872 18CA  
                                    l2864 18AC                                      l2928 1A9A  
                                    l2952 21C0                                      l2944 1AEC  
                                    l4456 2186                                      l4448 17AE  
                                    l4298 1D6C                                      l4482 19F2  
                                    l4474 19AE                                      l4466 1984  
                                    l4458 1956                                      l2890 1928  
                                    l2882 1902                                      l2874 18D2  
                                    l2866 18B0                                      l2858 1892  
                                    l2954 21CE                                      l2946 1B08  
                                    l2938 1AC2                                      l4484 1A0E  
                                    l4476 19B2                                      l4468 198C  
                                    l2892 192E                                      l2884 1908  
                                    l2876 18E4                                      l2868 18BE  
                                    l2948 1B3A                                      l4820 161E  
                                    l4478 19D2                                      l2886 191E  
                                    l2878 18EC                                      l2894 1934  
                                    l4830 1644                                      l4822 1622  
                                    l2896 1944                                      l2888 1926  
                                    l4840 1688                                      l4832 1648  
                                    l4824 1626                                      l2898 194C  
                                    l4842 16A4                                      l4834 1656  
                                    l4826 1638                                      l4850 16DE  
                                    l3980 137A                                      l4844 16AE  
                                    l4836 166C                                      l4828 1640  
                                    l3982 1382                                      l3990 1452  
                                    l4846 16C4                                      l4838 1678  
                                    l3984 13D8                                      l3976 1346  
                                    l4848 16DA                                      l3978 135A  
                                    l3988 1428                                      l3998 1D9A  
                                    STR_1 104D                                      STR_2 1055  
                                    STR_3 105D                                      STR_4 1042  
                                    STR_5 1023                                      STR_6 1033  
                                    STR_7 1011                                      STR_8 1063  
                                    u2000 18BE                                      u2001 18BA  
                                    u2010 18E4                                      u2011 18E0  
                                    u2020 1902                                      u2100 1AB0  
                                    u2021 18FE                                      u2101 1AAC  
                                    u2030 191E                                      u2110 1AD2  
                                    u2031 191A                                      u2111 1ACE  
                                    u2040 1944                                      u2120 1AE2  
                                    u2041 1940                                      u2121 1ADE  
                                    u2050 1A24                                      u2130 1B08  
                                    u2051 1A20                                      u2131 1B04  
                                    u2060 1A3E                                      u2140 1B3A  
                                    u2300 111A                                      u2061 1A3A  
                                    u2141 1B36                                      u2301 1114  
                                    _LATA 0F89                                      u2070 1A58  
                                    u2150 21CE                                      u2310 111C  
                                    _LATB 0F8A                                      u2071 1A54  
                                    u2151 21CA                                      _LATC 0F8B  
                                    u2080 1A76                                      u2320 117C  
                                    u4000 175A                                      _LATD 0F8C  
                                    u2081 1A72                                      u2321 1178  
                                    u4001 1756                                      _LATE 0F8D  
                                    u2090 1A8C                                      u2330 118C  
                                    u4010 176A                                      u2091 1A88  
                                    u2331 1188                                      u4011 1766  
                                    u2340 119C                                      u4020 177A  
                                    u2341 1198                                      u4021 1776  
                                    u2350 11AC                                      u2270 108A  
                                    u4030 178A                                      u2351 11A8  
                                    u2271 1086                                      u4031 1786  
                                    u3400 137A                                      u4040 1984  
                                    u2360 11EC                                      u2280 10C8  
                                    u3401 1376                                      u4041 1980  
                                    u2361 11E8                                      u2281 10C4  
                                    u4050 199E                                      u2290 10E4  
                                    u4051 199A                                      u2291 10E0  
                                    u3500 1318                                      u4060 19AE  
                                    u3501 1312                                      u4061 19AA  
                                    u3510 131A                                      u3414 13A0  
                                    u3430 1DAA                                      u3415 139C  
                                    u3431 1DA6                                      u3424 13F6  
                                    u3600 1EDC                                      u3440 212A  
                                    u2480 2110                                      u3520 1B80  
                                    u3425 13F2                                      u3601 1ED8  
                                    u3441 2126                                      u2481 210C  
                                    u3521 1B7C                                      u3610 1EFC  
                                    u3450 1FF2                                      u3530 1B90  
                                    u3611 1EF8                                      u3451 1FEE  
                                    u3531 1B8C                                      u3460 1234  
                                    u2580 2222                                      u3540 1BB0  
                                    u3620 155C                                      u3700 1F5A  
                                    u4500 1688                                      u3461 1230  
                                    u2581 221E                                      u3541 1BAC  
                                    u3621 1558                                      u3701 1F56  
                                    u4501 1684                                      u3470 1254  
                                    u3390 135A                                      u3710 1E7A  
                                    u2750 20A6                                      u3630 156C  
                                    u4510 16F0                                      u3471 1250  
                                    u3391 1356                                      u3711 1E76  
                                    u2751 20A2                                      u3631 1568  
                                    u4511 16EC                                      u3720 1EA2  
                                    u3800 1466                                      u3560 1F96  
                                    u3640 1598                                      u3721 1E9E  
                                    u3801 1462                                      u3561 1F92  
                                    u3641 1594                                      u3730 1EC4  
                                    u3810 14A4                                      u3570 17DC  
                                    u3554 1C00                                      u3650 15D8  
                                    u3731 1EC0                                      u3811 14A0  
                                    u3571 17D8                                      u3555 1BFC  
                                    u3651 15D4                                      u3484 127A  
                                    u3580 17EC                                      u3820 1D3A  
                                    u3660 160A                                      u3740 2068  
                                    u3900 1D24                                      u3485 1276  
                                    u3581 17E8                                      u3821 1D36  
                                    u3661 1606                                      u3741 2064  
                                    u3901 1D20                                      u3494 12D0  
                                    u3750 1C24                                      u3590 17FC  
                                    u3830 1D4C                                      u1990 18A4  
                                    u3670 161C                                      u3495 12CC  
                                    u3751 1C20                                      u3591 17F8  
                                    u3831 1D48                                      u1991 18A0  
                                    u3671 1618                                      u3760 1C36  
                                    u3840 1D5C                                      u3680 1F3A  
                                    u3761 1C32                                      u3841 1D58  
                                    u3681 1F36                                      u3770 1C64  
                                    u3850 1D6C                                      u3690 1F4A  
                                    u4490 1638                                      u3851 1D68  
                                    u3691 1F46                                      u4707 172A  
                                    u4491 1634                                      u3780 1C92  
                                    u3860 1CE4                                      u3861 1CE0  
                                    u4717 17B8                                      u3790 1CA2  
                                    u3870 1CF4                                      u3791 1C9E  
                                    u3871 1CF0                                      u4727 1CC4  
                                    u3880 1D04                                      u3777 1C5A  
                                    u4737 15AC                                      u3881 1D00  
                                    u3890 1D14                                      u4747 2256  
                                    u3787 1C88                                      u3891 1D10  
                                    u4757 14AA                                      u3990 174A  
                                    u4767 14C6                                      u3991 1746  
                                    u4687 1660                                      u4777 14DE  
                                    u4697 16CE                      _lcd_4bit_send_string 1C10  
           ??_lcd_4bit_send_enable_signal 000A                               compare@flag 001F  
                                    abs@a 0007                                      _dbuf 0080  
          gpio_pin_read_logic@_pin_config 0001                                      _flag 0055  
                                    _main 161E                                      _prec 0033  
                                    fsr0h 0FEA                                      fsr1h 0FE2  
                                    indf0 0FEF                                      fsr2h 0FDA  
                                    fsr0l 0FE9                                      indf1 0FE7  
                                    indf2 0FDF                                      fsr1l 0FE1  
                                    fsr2l 0FD9         lcd_4bit_send_char_data_pos@column 0017  
                                    prodl 0FF3                                      start 0000  
                            ___param_bank 0000                     _lcd_4bit_send_command 1FE2  
                                   ??_abs 0009                      _gpio_pin_write_logic 1346  
          lcd_4bit_send_string_pos@column 0017                              main@cmpr_ret 0030  
                                   ?_main 0001                  ??_application_initialize 0013  
                         __end_of___awdiv 1956                           __end_of___awmod 1AC2  
                         ___awdiv@divisor 0003                           ___awdiv@counter 0005  
                            vfpfcnvrt@fmt 000C                                     _PORTA 0F80  
                                   _PORTB 0F81                                     _PORTC 0F82  
                                   _PORTD 0F83                                     _PORTE 0F84  
                                   _TRISA 0F92                                     _TRISB 0F93  
                                   _TRISC 0F94                                     _TRISD 0F95  
                                   _TRISE 0F96                 lcd_4bit_set_cursor@column 0011  
                __end_of_keypad_get_value 161E                           __end_of_compare 1A12  
                            ?_read_inputs 0001                                     _flags 0035  
                                   _fputc 1AC2                                     _input 0045  
                                   _width 0031                                     _putch 2280  
                                   _tries 006E                     ?_lcd_4bit_send_string 000F  
                                   tablat 0FF5                                     status 0FD8  
                         __end_of_sprintf 21C0         keypad_get_value@l_columns_counter 000F  
          ?_gpio_pin_direction_initialize 0001                           __initialization 1E08  
                            __end_of_main 16F4                     ?_gpio_pin_write_logic 0001  
                gpio_pin_read_logic@logic 0002                             _lat_registers 0059  
                                  ??_main 002E                             __activetblptr 0002  
                        led_turn_on@F3063 003B                                    ?_fputc 0001  
                        ___awdiv@dividend 0001                                    ?_putch 0001  
                           vfpfcnvrt@done 000F                 keypad_get_value@l_counter 000D  
        __end_of_lcd_4bit_send_string_pos 1D9A                    ?_lcd_4bit_send_command 000C  
                           compare@_input 001B                              vfprintf@cfmt 0019  
                               ??___awdiv 0005                                 ??___awmod 0005  
                                  _keypad 006F                                    _memset 21F4  
                                  clear_0 1E4E                                    clear_1 1E5A  
                        ___awdiv@quotient 0007                           ___awmod@divisor 0003  
                                  isa$std 0001                           ___awmod@counter 0005  
                               ??_compare 001D                                    fputc@c 0001  
                            __pdataCOMRAM 0059                              __mediumconst 0000  
                                  tblptrh 0FF7                                    tblptrl 0FF6  
                                  tblptru 0FF8                                    putch@c 0001  
                        __end_of_vfprintf 211A                    ??_lcd_4bit_send_string 0012  
                               ??_sprintf 001E                   _convert_uint8_to_string 2090  
                              __accesstop 0080                   __end_of__initialization 1E60  
                           ___rparam_used 0001                          ??_lcd_send_4bits 000B  
              convert_uint8_to_string@ret 002D                convert_uint8_to_string@str 002B  
                 _lcd_4bit_send_char_data 1F86                    ??_gpio_pin_write_logic 0003  
                          __pcstackCOMRAM 0001                              __pidataBANK0 2270  
                           __end_of_fputc 1B6C                             __end_of_putch 2282  
                lcd_4bit_send_command@lcd 000C                  lcd_4bit_send_command@ret 000E  
gpio_pin_direction_initialize@_pin_config 0001              ?_lcd_4bit_send_char_data_pos 0015  
                                 ??_fputc 0004                   lcd_4bit_send_string@lcd 000F  
                 lcd_4bit_send_string@ret 0012                   lcd_4bit_send_string@str 0010  
                                 ??_putch 0001                                __pbssBANK0 0080  
                  _application_initialize 227A                            _enter_password 2156  
                       led_turn_off@F3068 003A                           led_toggle@F3073 0039  
                                 ?_memset 0001                  dc_motor_move_right@F3064 0042  
                dc_motor_move_right@F3066 0041                     set_password@l_counter 001E  
               ?_lcd_4bit_send_string_pos 0015                             _keypad_values 1001  
                       ?_keypad_get_value 0009                 ??_convert_uint8_to_string 002C  
                      ??_keypad_get_value 000B                    __end_of_enter_password 218C  
                          _tris_registers 0063                         __end_of_clear_lcd 225E  
               ??_lcd_4bit_send_char_data 000E                                   __Hparam 0000  
                                 __Lparam 0000                       _gpio_pin_initialize 1ECC  
                                 ___awdiv 1892                       _gpio_pin_read_logic 1B6C  
                                 ___awmod 1A12                      read_inputs@l_counter 001E  
                               ?_vfprintf 0016                              __psmallconst 1000  
                           ?_set_password 0001                                   __pcinit 1E08  
                                 __ramtop 1000                                _read_input 203E  
                                 __ptext0 161E                                   __ptext1 16F4  
                                 __ptext2 2156                                   __ptext3 1CA6  
                                 __ptext4 203E                                   __ptext5 1F2A  
                                 __ptext6 153C                                   __ptext7 1B6C  
                                 __ptext8 2090                                   __ptext9 218C  
                                 _compare 1956           ??_gpio_pin_direction_initialize 0002  
                        ___awmod@dividend 0001                      ?_gpio_pin_initialize 0009  
                    ?_gpio_pin_read_logic 0001                                   _sprintf 218C  
                    end_of_initialization 1E60                         lcd_send_4bits@lcd 0009  
                       lcd_send_4bits@ret 000B                           ?_enter_password 0001  
                                 fputc@fp 0003                                   memset@c 0002  
                                 memset@n 0004                                   memset@p 0006  
                           __Lmediumconst 0000                        dc_motor_stop@F3080 003D  
                      dc_motor_stop@F3078 003E                   ??_lcd_4bit_send_command 000E  
                       __end_of_vfpfcnvrt 1220           __end_of_convert_uint8_to_string 20DC  
                                 postdec1 0FE5                                   postdec2 0FDD  
                                 postinc0 0FEE                                   postinc1 0FE6  
                                 postinc2 0FDE                          vfpfcnvrt@convarg 0011  
                          ??_set_password 001C                                ??_vfprintf 0019  
                     _lcd_4bit_initialize 1456           __end_of_lcd_4bit_send_char_data 1FE2  
               dc_motor_intitialize@F3057 0044                 dc_motor_intitialize@F3059 0043  
            keypad_get_value@column_logic 000C                lcd_4bit_send_char_data@lcd 000C  
              lcd_4bit_send_char_data@ret 000E                      lcd_4bit_initialize@i 0011  
                   ??_gpio_pin_initialize 000A                     ??_gpio_pin_read_logic 0003  
         lcd_4bit_send_char_data_pos@data 0018                      ?_lcd_4bit_initialize 000F  
                     _lcd_4bit_set_cursor 17C6               lcd_4bit_send_string_pos@lcd 0015  
             lcd_4bit_send_string_pos@ret 001A               lcd_4bit_send_string_pos@row 0016  
             lcd_4bit_send_string_pos@str 0018                     keypad_get_value@value 000A  
                             vfpfcnvrt@ap 000D                               vfpfcnvrt@cp 0010  
                             vfpfcnvrt@fp 000B                             __pidataCOMRAM 2224  
                             ?_read_input 001A                            __end_of_memset 2224  
                     start_initialization 1E08              ?_lcd_4bit_send_enable_signal 0009  
                    ?_lcd_4bit_set_cursor 000F                               __end_of_abs 21F4  
   __end_of_gpio_pin_direction_initialize 1346             _gpio_pin_direction_initialize 1220  
                 ?_application_initialize 0001                     ??_lcd_4bit_initialize 0010  
                 dc_motor_move_left@F3071 0040                   dc_motor_move_left@F3073 003F  
                             vfprintf@fmt 0017                          compare@_password 001C  
                             __pdataBANK0 00A0                                  ??_memset 0006  
            __end_of_ecu_layer_initailize 2270                                memset@dest 0001  
            lcd_4bit_send_command@command 000D                          compare@l_counter 0020  
                             __pbssCOMRAM 0031                     ??_lcd_4bit_set_cursor 0012  
                           ??_read_inputs 001C            __end_of_application_initialize 2280  
            convert_uint8_to_string@value 002C                      __end_of_set_password 17C6  
                   Relay_initialize@F3054 0038                                 _clear_lcd 2248  
         gpio_pin_write_logic@_pin_config 0001                                  ?___awdiv 0001  
                                ?___awmod 0001                 gpio_pin_write_logic@logic 0002  
                                ?_compare 001B                               __smallconst 1000  
                        ??_enter_password 001F                                  ?_sprintf 001A  
                     __end_of_read_inputs 1D2A                lcd_send_4bits@data_command 000A  
           __end_of_lcd_4bit_send_command 203E                                ?_clear_lcd 0001  
        gpio_pin_direction_initialize@ret 0007                                 _vfpfcnvrt 1068  
                _lcd_4bit_send_string_pos 1D2A                       Relay_turn_off@F3064 0036  
                      keypad_initialize@i 000E            lcd_4bit_send_char_data_pos@lcd 0015  
          lcd_4bit_send_char_data_pos@ret 0019            lcd_4bit_send_char_data_pos@row 0016  
                               _tries_txt 0051                  ?_convert_uint8_to_string 002B  
                  gpio_pin_initialize@ret 000B       __end_of_lcd_4bit_send_char_data_pos 1F86  
             _lcd_4bit_send_char_data_pos 1F2A                                vfpfcnvrt@c 0015  
                 gpio_pin_write_logic@ret 0008                  ?_lcd_4bit_send_char_data 000C  
                               copy_data0 1E1C                                 copy_data1 1E3C  
                       _keypad_initialize 1E6A                      _ecu_layer_initailize 225E  
                      ?_keypad_initialize 000C                    gpio_pin_read_logic@ret 0007  
           ??_lcd_4bit_send_char_data_pos 0019                                  __Hrparam 0000  
                              vfprintf@ap 0018                                  __Lrparam 0000  
                              vfprintf@fp 0016                       ??_keypad_initialize 000D  
                  lcd_4bit_set_cursor@lcd 000F                    lcd_4bit_set_cursor@ret 0014  
                              ?_vfpfcnvrt 000B                    lcd_4bit_set_cursor@row 0010  
                            ??_read_input 001C               __end_of_gpio_pin_initialize 1F2A  
             __end_of_gpio_pin_read_logic 1C10            gpio_pin_initialize@_pin_config 0009  
             keypad_get_value@_keypad_obj 0009                                sprintf@fmt 001B  
               __end_of_keypad_initialize 1ECC                                  __ptext10 20DC  
                                __ptext11 1068                                  __ptext20 17C6  
                                __ptext12 1AC2                                  __ptext21 1C10  
                                __ptext13 2280                                  __ptext30 1E6A  
                                __ptext22 1F86                                  __ptext14 21C0  
                                __ptext31 1ECC                                  __ptext23 2248  
                                __ptext15 1A12                                  __ptext32 1346  
                                __ptext24 227A                                  __ptext16 1892  
                                __ptext33 1220                                  __ptext25 225E  
                                __ptext17 21F4                                  __ptext26 1456  
                                __ptext18 1956                                  __ptext27 1FE2  
                                __ptext19 1D2A                                  __ptext28 1D9A  
                                __ptext29 211A                               _read_inputs 1CA6  
                   ?_ecu_layer_initailize 0001                        __end_of_read_input 2090  
                      Relay_turn_on@F3059 0037                                  _password 004B  
                             ??_clear_lcd 000F                          _keypad_get_value 153C  
                                isa$xinst 0000                           read_input@input 001A  
            __end_of_lcd_4bit_send_string 1CA6                                  _vfprintf 20DC  
                            _set_password 16F4                            _lcd_send_4bits 1D9A  
                   __end_of_keypad_values 1011               __end_of_lcd_4bit_initialize 153C  
          keypad_get_value@l_rows_counter 000E              __end_of_gpio_pin_write_logic 1456  
                               sprintf@ap 001E            lcd_4bit_send_enable_signal@lcd 0009  
          lcd_4bit_send_enable_signal@ret 000A                            read_input@flag 001B  
                  __end_of_lcd_send_4bits 1E08                               ??_vfpfcnvrt 000E  
             __end_of_lcd_4bit_set_cursor 1892                                  sprintf@f 001F  
                                sprintf@s 001A                            _port_registers 00A0  
                  ??_ecu_layer_initailize 0013               lcd_4bit_send_char_data@data 000D  
              ??_lcd_4bit_send_string_pos 001A                    lcd_4bit_initialize@lcd 000F  
                  lcd_4bit_initialize@ret 0012  
